
SmartBox.elf:     file format elf32-avr

Sections:
Idx Name          Size      VMA       LMA       File off  Algn
  0 .text         000023dc  00000000  00000000  00000094  2**1
                  CONTENTS, ALLOC, LOAD, READONLY, CODE
  1 .data         00000102  00800060  000023dc  00002470  2**0
                  CONTENTS, ALLOC, LOAD, DATA
  2 .bss          000000da  00800162  00800162  00002572  2**0
                  ALLOC
  3 .comment      0000005c  00000000  00000000  00002572  2**0
                  CONTENTS, READONLY
  4 .note.gnu.avr.deviceinfo 0000003c  00000000  00000000  000025d0  2**2
                  CONTENTS, READONLY
  5 .debug_aranges 000003f0  00000000  00000000  0000260c  2**0
                  CONTENTS, READONLY, DEBUGGING
  6 .debug_info   00003b30  00000000  00000000  000029fc  2**0
                  CONTENTS, READONLY, DEBUGGING
  7 .debug_abbrev 0000115f  00000000  00000000  0000652c  2**0
                  CONTENTS, READONLY, DEBUGGING
  8 .debug_line   00001f21  00000000  00000000  0000768b  2**0
                  CONTENTS, READONLY, DEBUGGING
  9 .debug_frame  00000b70  00000000  00000000  000095ac  2**2
                  CONTENTS, READONLY, DEBUGGING
 10 .debug_str    00001142  00000000  00000000  0000a11c  2**0
                  CONTENTS, READONLY, DEBUGGING
 11 .debug_loc    00002ad9  00000000  00000000  0000b25e  2**0
                  CONTENTS, READONLY, DEBUGGING
 12 .debug_ranges 00000380  00000000  00000000  0000dd37  2**0
                  CONTENTS, READONLY, DEBUGGING

Disassembly of section .text:

00000000 <__vectors>:
       0:	0c 94 30 00 	jmp	0x60	; 0x60 <__ctors_end>
       4:	0c 94 b0 02 	jmp	0x560	; 0x560 <__vector_1>
       8:	0c 94 24 09 	jmp	0x1248	; 0x1248 <__vector_2>
       c:	0c 94 33 09 	jmp	0x1266	; 0x1266 <__vector_3>
      10:	0c 94 4d 00 	jmp	0x9a	; 0x9a <__bad_interrupt>
      14:	0c 94 1c 03 	jmp	0x638	; 0x638 <__vector_5>
      18:	0c 94 4d 00 	jmp	0x9a	; 0x9a <__bad_interrupt>
      1c:	0c 94 4d 00 	jmp	0x9a	; 0x9a <__bad_interrupt>
      20:	0c 94 4d 00 	jmp	0x9a	; 0x9a <__bad_interrupt>
      24:	0c 94 68 09 	jmp	0x12d0	; 0x12d0 <__vector_9>
      28:	0c 94 4d 00 	jmp	0x9a	; 0x9a <__bad_interrupt>
      2c:	0c 94 42 09 	jmp	0x1284	; 0x1284 <__vector_11>
      30:	0c 94 4d 00 	jmp	0x9a	; 0x9a <__bad_interrupt>
      34:	0c 94 da 09 	jmp	0x13b4	; 0x13b4 <__vector_13>
      38:	0c 94 4d 00 	jmp	0x9a	; 0x9a <__bad_interrupt>
      3c:	0c 94 4d 00 	jmp	0x9a	; 0x9a <__bad_interrupt>
      40:	0c 94 9a 09 	jmp	0x1334	; 0x1334 <__vector_16>
      44:	0c 94 4d 00 	jmp	0x9a	; 0x9a <__bad_interrupt>
      48:	0c 94 4d 00 	jmp	0x9a	; 0x9a <__bad_interrupt>
      4c:	0c 94 4d 00 	jmp	0x9a	; 0x9a <__bad_interrupt>
      50:	0c 94 4d 00 	jmp	0x9a	; 0x9a <__bad_interrupt>

00000054 <__trampolines_end>:
      54:	63 64       	ori	r22, 0x43	; 67
      56:	69 6e       	ori	r22, 0xE9	; 233
      58:	6f 70       	andi	r22, 0x0F	; 15
      5a:	73 75       	andi	r23, 0x53	; 83
      5c:	78 58       	subi	r23, 0x88	; 136
      5e:	5b 00       	.word	0x005b	; ????

00000060 <__ctors_end>:
      60:	11 24       	eor	r1, r1
      62:	1f be       	out	0x3f, r1	; 63
      64:	cf e5       	ldi	r28, 0x5F	; 95
      66:	d8 e0       	ldi	r29, 0x08	; 8
      68:	de bf       	out	0x3e, r29	; 62
      6a:	cd bf       	out	0x3d, r28	; 61

0000006c <__do_copy_data>:
      6c:	11 e0       	ldi	r17, 0x01	; 1
      6e:	a0 e6       	ldi	r26, 0x60	; 96
      70:	b0 e0       	ldi	r27, 0x00	; 0
      72:	ec ed       	ldi	r30, 0xDC	; 220
      74:	f3 e2       	ldi	r31, 0x23	; 35
      76:	02 c0       	rjmp	.+4      	; 0x7c <__do_copy_data+0x10>
      78:	05 90       	lpm	r0, Z+
      7a:	0d 92       	st	X+, r0
      7c:	a2 36       	cpi	r26, 0x62	; 98
      7e:	b1 07       	cpc	r27, r17
      80:	d9 f7       	brne	.-10     	; 0x78 <__do_copy_data+0xc>

00000082 <__do_clear_bss>:
      82:	22 e0       	ldi	r18, 0x02	; 2
      84:	a2 e6       	ldi	r26, 0x62	; 98
      86:	b1 e0       	ldi	r27, 0x01	; 1
      88:	01 c0       	rjmp	.+2      	; 0x8c <.do_clear_bss_start>

0000008a <.do_clear_bss_loop>:
      8a:	1d 92       	st	X+, r1

0000008c <.do_clear_bss_start>:
      8c:	ac 33       	cpi	r26, 0x3C	; 60
      8e:	b2 07       	cpc	r27, r18
      90:	e1 f7       	brne	.-8      	; 0x8a <.do_clear_bss_loop>
      92:	0e 94 b2 08 	call	0x1164	; 0x1164 <main>
      96:	0c 94 ec 11 	jmp	0x23d8	; 0x23d8 <_exit>

0000009a <__bad_interrupt>:
      9a:	0c 94 00 00 	jmp	0	; 0x0 <__vectors>

0000009e <Dec2bcd>:
		reg |= Frequency;
	}

	//Write control register
	RTC_WriteByte(__RTC_Address_Control, reg);
}
      9e:	9a e1       	ldi	r25, 0x1A	; 26
      a0:	89 9f       	mul	r24, r25
      a2:	90 01       	movw	r18, r0
      a4:	11 24       	eor	r1, r1
      a6:	93 2f       	mov	r25, r19
      a8:	99 0f       	add	r25, r25
      aa:	93 0f       	add	r25, r19
      ac:	99 0f       	add	r25, r25
      ae:	89 0f       	add	r24, r25
      b0:	08 95       	ret

000000b2 <RTC_Status>:
      b2:	80 91 60 00 	lds	r24, 0x0060	; 0x800060 <__RTC_Status>
      b6:	08 95       	ret

000000b8 <RTC_WriteBlock>:
      b8:	ef 92       	push	r14
      ba:	ff 92       	push	r15
      bc:	0f 93       	push	r16
      be:	1f 93       	push	r17
      c0:	cf 93       	push	r28
      c2:	df 93       	push	r29
      c4:	c8 2f       	mov	r28, r24
      c6:	7b 01       	movw	r14, r22
      c8:	14 2f       	mov	r17, r20
      ca:	0e 94 fd 04 	call	0x9fa	; 0x9fa <TWI_BeginTransmission>
      ce:	0e 94 fa 04 	call	0x9f4	; 0x9f4 <TWI_Status>
      d2:	88 30       	cpi	r24, 0x08	; 8
      d4:	29 f0       	breq	.+10     	; 0xe0 <RTC_WriteBlock+0x28>
      d6:	80 31       	cpi	r24, 0x10	; 16
      d8:	19 f0       	breq	.+6      	; 0xe0 <RTC_WriteBlock+0x28>
      da:	10 92 60 00 	sts	0x0060, r1	; 0x800060 <__RTC_Status>
      de:	32 c0       	rjmp	.+100    	; 0x144 <RTC_WriteBlock+0x8c>
      e0:	80 ed       	ldi	r24, 0xD0	; 208
      e2:	0e 94 0b 05 	call	0xa16	; 0xa16 <TWI_Transmit>
      e6:	0e 94 fa 04 	call	0x9f4	; 0x9f4 <TWI_Status>
      ea:	88 31       	cpi	r24, 0x18	; 24
      ec:	29 f0       	breq	.+10     	; 0xf8 <RTC_WriteBlock+0x40>
      ee:	80 32       	cpi	r24, 0x20	; 32
      f0:	19 f0       	breq	.+6      	; 0xf8 <RTC_WriteBlock+0x40>
      f2:	10 92 60 00 	sts	0x0060, r1	; 0x800060 <__RTC_Status>
      f6:	26 c0       	rjmp	.+76     	; 0x144 <RTC_WriteBlock+0x8c>
      f8:	8c 2f       	mov	r24, r28
      fa:	0e 94 0b 05 	call	0xa16	; 0xa16 <TWI_Transmit>
      fe:	0e 94 fa 04 	call	0x9f4	; 0x9f4 <TWI_Status>
     102:	88 32       	cpi	r24, 0x28	; 40
     104:	19 f4       	brne	.+6      	; 0x10c <RTC_WriteBlock+0x54>
     106:	11 11       	cpse	r17, r1
     108:	06 c0       	rjmp	.+12     	; 0x116 <RTC_WriteBlock+0x5e>
     10a:	19 c0       	rjmp	.+50     	; 0x13e <RTC_WriteBlock+0x86>
     10c:	80 33       	cpi	r24, 0x30	; 48
     10e:	d9 f3       	breq	.-10     	; 0x106 <RTC_WriteBlock+0x4e>
     110:	10 92 60 00 	sts	0x0060, r1	; 0x800060 <__RTC_Status>
     114:	17 c0       	rjmp	.+46     	; 0x144 <RTC_WriteBlock+0x8c>
     116:	e7 01       	movw	r28, r14
     118:	11 50       	subi	r17, 0x01	; 1
     11a:	01 2f       	mov	r16, r17
     11c:	10 e0       	ldi	r17, 0x00	; 0
     11e:	0f 5f       	subi	r16, 0xFF	; 255
     120:	1f 4f       	sbci	r17, 0xFF	; 255
     122:	0e 0d       	add	r16, r14
     124:	1f 1d       	adc	r17, r15
     126:	89 91       	ld	r24, Y+
     128:	0e 94 0b 05 	call	0xa16	; 0xa16 <TWI_Transmit>
     12c:	0e 94 fa 04 	call	0x9f4	; 0x9f4 <TWI_Status>
     130:	88 32       	cpi	r24, 0x28	; 40
     132:	11 f0       	breq	.+4      	; 0x138 <RTC_WriteBlock+0x80>
     134:	80 33       	cpi	r24, 0x30	; 48
     136:	19 f4       	brne	.+6      	; 0x13e <RTC_WriteBlock+0x86>
     138:	c0 17       	cp	r28, r16
     13a:	d1 07       	cpc	r29, r17
     13c:	a1 f7       	brne	.-24     	; 0x126 <RTC_WriteBlock+0x6e>
     13e:	81 e0       	ldi	r24, 0x01	; 1
     140:	80 93 60 00 	sts	0x0060, r24	; 0x800060 <__RTC_Status>
     144:	0e 94 05 05 	call	0xa0a	; 0xa0a <TWI_EndTransmission>
     148:	df 91       	pop	r29
     14a:	cf 91       	pop	r28
     14c:	1f 91       	pop	r17
     14e:	0f 91       	pop	r16
     150:	ff 90       	pop	r15
     152:	ef 90       	pop	r14
     154:	08 95       	ret

00000156 <RTC_WriteByte>:
     156:	cf 93       	push	r28
     158:	df 93       	push	r29
     15a:	1f 92       	push	r1
     15c:	cd b7       	in	r28, 0x3d	; 61
     15e:	de b7       	in	r29, 0x3e	; 62
     160:	69 83       	std	Y+1, r22	; 0x01
     162:	41 e0       	ldi	r20, 0x01	; 1
     164:	be 01       	movw	r22, r28
     166:	6f 5f       	subi	r22, 0xFF	; 255
     168:	7f 4f       	sbci	r23, 0xFF	; 255
     16a:	0e 94 5c 00 	call	0xb8	; 0xb8 <RTC_WriteBlock>
     16e:	0f 90       	pop	r0
     170:	df 91       	pop	r29
     172:	cf 91       	pop	r28
     174:	08 95       	ret

00000176 <RTC_ReadBlock>:
     176:	ff 92       	push	r15
     178:	0f 93       	push	r16
     17a:	1f 93       	push	r17
     17c:	cf 93       	push	r28
     17e:	df 93       	push	r29
     180:	d8 2f       	mov	r29, r24
     182:	8b 01       	movw	r16, r22
     184:	c4 2f       	mov	r28, r20
     186:	0e 94 fd 04 	call	0x9fa	; 0x9fa <TWI_BeginTransmission>
     18a:	0e 94 fa 04 	call	0x9f4	; 0x9f4 <TWI_Status>
     18e:	88 30       	cpi	r24, 0x08	; 8
     190:	29 f0       	breq	.+10     	; 0x19c <RTC_ReadBlock+0x26>
     192:	80 31       	cpi	r24, 0x10	; 16
     194:	19 f0       	breq	.+6      	; 0x19c <RTC_ReadBlock+0x26>
     196:	10 92 60 00 	sts	0x0060, r1	; 0x800060 <__RTC_Status>
     19a:	5b c0       	rjmp	.+182    	; 0x252 <RTC_ReadBlock+0xdc>
     19c:	80 ed       	ldi	r24, 0xD0	; 208
     19e:	0e 94 0b 05 	call	0xa16	; 0xa16 <TWI_Transmit>
     1a2:	0e 94 fa 04 	call	0x9f4	; 0x9f4 <TWI_Status>
     1a6:	88 31       	cpi	r24, 0x18	; 24
     1a8:	29 f0       	breq	.+10     	; 0x1b4 <RTC_ReadBlock+0x3e>
     1aa:	80 32       	cpi	r24, 0x20	; 32
     1ac:	19 f0       	breq	.+6      	; 0x1b4 <RTC_ReadBlock+0x3e>
     1ae:	10 92 60 00 	sts	0x0060, r1	; 0x800060 <__RTC_Status>
     1b2:	4f c0       	rjmp	.+158    	; 0x252 <RTC_ReadBlock+0xdc>
     1b4:	8d 2f       	mov	r24, r29
     1b6:	0e 94 0b 05 	call	0xa16	; 0xa16 <TWI_Transmit>
     1ba:	0e 94 fa 04 	call	0x9f4	; 0x9f4 <TWI_Status>
     1be:	88 32       	cpi	r24, 0x28	; 40
     1c0:	29 f0       	breq	.+10     	; 0x1cc <RTC_ReadBlock+0x56>
     1c2:	80 33       	cpi	r24, 0x30	; 48
     1c4:	19 f0       	breq	.+6      	; 0x1cc <RTC_ReadBlock+0x56>
     1c6:	10 92 60 00 	sts	0x0060, r1	; 0x800060 <__RTC_Status>
     1ca:	43 c0       	rjmp	.+134    	; 0x252 <RTC_ReadBlock+0xdc>
     1cc:	0e 94 fd 04 	call	0x9fa	; 0x9fa <TWI_BeginTransmission>
     1d0:	0e 94 fa 04 	call	0x9f4	; 0x9f4 <TWI_Status>
     1d4:	88 30       	cpi	r24, 0x08	; 8
     1d6:	29 f0       	breq	.+10     	; 0x1e2 <RTC_ReadBlock+0x6c>
     1d8:	80 31       	cpi	r24, 0x10	; 16
     1da:	19 f0       	breq	.+6      	; 0x1e2 <RTC_ReadBlock+0x6c>
     1dc:	10 92 60 00 	sts	0x0060, r1	; 0x800060 <__RTC_Status>
     1e0:	38 c0       	rjmp	.+112    	; 0x252 <RTC_ReadBlock+0xdc>
     1e2:	81 ed       	ldi	r24, 0xD1	; 209
     1e4:	0e 94 0b 05 	call	0xa16	; 0xa16 <TWI_Transmit>
     1e8:	0e 94 fa 04 	call	0x9f4	; 0x9f4 <TWI_Status>
     1ec:	87 7f       	andi	r24, 0xF7	; 247
     1ee:	80 34       	cpi	r24, 0x40	; 64
     1f0:	39 f4       	brne	.+14     	; 0x200 <RTC_ReadBlock+0x8a>
     1f2:	d0 e0       	ldi	r29, 0x00	; 0
     1f4:	21 97       	sbiw	r28, 0x01	; 1
     1f6:	1c 16       	cp	r1, r28
     1f8:	1d 06       	cpc	r1, r29
     1fa:	2c f0       	brlt	.+10     	; 0x206 <RTC_ReadBlock+0x90>
     1fc:	f1 2c       	mov	r15, r1
     1fe:	18 c0       	rjmp	.+48     	; 0x230 <RTC_ReadBlock+0xba>
     200:	10 92 60 00 	sts	0x0060, r1	; 0x800060 <__RTC_Status>
     204:	26 c0       	rjmp	.+76     	; 0x252 <RTC_ReadBlock+0xdc>
     206:	f1 2c       	mov	r15, r1
     208:	0e 94 14 05 	call	0xa28	; 0xa28 <TWI_ReceiveACK>
     20c:	f8 01       	movw	r30, r16
     20e:	ef 0d       	add	r30, r15
     210:	f1 1d       	adc	r31, r1
     212:	80 83       	st	Z, r24
     214:	0e 94 fa 04 	call	0x9f4	; 0x9f4 <TWI_Status>
     218:	87 7f       	andi	r24, 0xF7	; 247
     21a:	80 35       	cpi	r24, 0x50	; 80
     21c:	19 f0       	breq	.+6      	; 0x224 <RTC_ReadBlock+0xae>
     21e:	10 92 60 00 	sts	0x0060, r1	; 0x800060 <__RTC_Status>
     222:	06 c0       	rjmp	.+12     	; 0x230 <RTC_ReadBlock+0xba>
     224:	f3 94       	inc	r15
     226:	8f 2d       	mov	r24, r15
     228:	90 e0       	ldi	r25, 0x00	; 0
     22a:	8c 17       	cp	r24, r28
     22c:	9d 07       	cpc	r25, r29
     22e:	64 f3       	brlt	.-40     	; 0x208 <RTC_ReadBlock+0x92>
     230:	e8 01       	movw	r28, r16
     232:	cf 0d       	add	r28, r15
     234:	d1 1d       	adc	r29, r1
     236:	0e 94 1b 05 	call	0xa36	; 0xa36 <TWI_ReceiveNACK>
     23a:	88 83       	st	Y, r24
     23c:	0e 94 fa 04 	call	0x9f4	; 0x9f4 <TWI_Status>
     240:	87 7f       	andi	r24, 0xF7	; 247
     242:	80 35       	cpi	r24, 0x50	; 80
     244:	19 f0       	breq	.+6      	; 0x24c <RTC_ReadBlock+0xd6>
     246:	10 92 60 00 	sts	0x0060, r1	; 0x800060 <__RTC_Status>
     24a:	03 c0       	rjmp	.+6      	; 0x252 <RTC_ReadBlock+0xdc>
     24c:	81 e0       	ldi	r24, 0x01	; 1
     24e:	80 93 60 00 	sts	0x0060, r24	; 0x800060 <__RTC_Status>
     252:	0e 94 05 05 	call	0xa0a	; 0xa0a <TWI_EndTransmission>
     256:	df 91       	pop	r29
     258:	cf 91       	pop	r28
     25a:	1f 91       	pop	r17
     25c:	0f 91       	pop	r16
     25e:	ff 90       	pop	r15
     260:	08 95       	ret

00000262 <RTC_ReadByte>:
     262:	cf 93       	push	r28
     264:	df 93       	push	r29
     266:	1f 92       	push	r1
     268:	cd b7       	in	r28, 0x3d	; 61
     26a:	de b7       	in	r29, 0x3e	; 62
     26c:	41 e0       	ldi	r20, 0x01	; 1
     26e:	be 01       	movw	r22, r28
     270:	6f 5f       	subi	r22, 0xFF	; 255
     272:	7f 4f       	sbci	r23, 0xFF	; 255
     274:	0e 94 bb 00 	call	0x176	; 0x176 <RTC_ReadBlock>
     278:	89 81       	ldd	r24, Y+1	; 0x01
     27a:	0f 90       	pop	r0
     27c:	df 91       	pop	r29
     27e:	cf 91       	pop	r28
     280:	08 95       	ret

00000282 <FlagWrite>:
     282:	0f 93       	push	r16
     284:	1f 93       	push	r17
     286:	cf 93       	push	r28
     288:	df 93       	push	r29
     28a:	d8 2f       	mov	r29, r24
     28c:	06 2f       	mov	r16, r22
     28e:	14 2f       	mov	r17, r20
     290:	0e 94 31 01 	call	0x262	; 0x262 <RTC_ReadByte>
     294:	48 2f       	mov	r20, r24
     296:	50 e0       	ldi	r21, 0x00	; 0
     298:	60 e0       	ldi	r22, 0x00	; 0
     29a:	70 e0       	ldi	r23, 0x00	; 0
     29c:	00 2e       	mov	r0, r16
     29e:	04 c0       	rjmp	.+8      	; 0x2a8 <FlagWrite+0x26>
     2a0:	76 95       	lsr	r23
     2a2:	67 95       	ror	r22
     2a4:	57 95       	ror	r21
     2a6:	47 95       	ror	r20
     2a8:	0a 94       	dec	r0
     2aa:	d2 f7       	brpl	.-12     	; 0x2a0 <FlagWrite+0x1e>
     2ac:	c4 2f       	mov	r28, r20
     2ae:	c1 70       	andi	r28, 0x01	; 1
     2b0:	41 e0       	ldi	r20, 0x01	; 1
     2b2:	50 e0       	ldi	r21, 0x00	; 0
     2b4:	60 e0       	ldi	r22, 0x00	; 0
     2b6:	70 e0       	ldi	r23, 0x00	; 0
     2b8:	04 c0       	rjmp	.+8      	; 0x2c2 <FlagWrite+0x40>
     2ba:	44 0f       	add	r20, r20
     2bc:	55 1f       	adc	r21, r21
     2be:	66 1f       	adc	r22, r22
     2c0:	77 1f       	adc	r23, r23
     2c2:	0a 95       	dec	r16
     2c4:	d2 f7       	brpl	.-12     	; 0x2ba <FlagWrite+0x38>
     2c6:	11 11       	cpse	r17, r1
     2c8:	04 c0       	rjmp	.+8      	; 0x2d2 <FlagWrite+0x50>
     2ca:	64 2f       	mov	r22, r20
     2cc:	60 95       	com	r22
     2ce:	68 23       	and	r22, r24
     2d0:	02 c0       	rjmp	.+4      	; 0x2d6 <FlagWrite+0x54>
     2d2:	68 2f       	mov	r22, r24
     2d4:	64 2b       	or	r22, r20
     2d6:	8d 2f       	mov	r24, r29
     2d8:	0e 94 ab 00 	call	0x156	; 0x156 <RTC_WriteByte>
     2dc:	8c 2f       	mov	r24, r28
     2de:	df 91       	pop	r29
     2e0:	cf 91       	pop	r28
     2e2:	1f 91       	pop	r17
     2e4:	0f 91       	pop	r16
     2e6:	08 95       	ret

000002e8 <RTC_Set>:
     2e8:	af 92       	push	r10
     2ea:	bf 92       	push	r11
     2ec:	cf 92       	push	r12
     2ee:	df 92       	push	r13
     2f0:	ef 92       	push	r14
     2f2:	ff 92       	push	r15
     2f4:	0f 93       	push	r16
     2f6:	1f 93       	push	r17
     2f8:	cf 93       	push	r28
     2fa:	df 93       	push	r29
     2fc:	cd b7       	in	r28, 0x3d	; 61
     2fe:	de b7       	in	r29, 0x3e	; 62
     300:	28 97       	sbiw	r28, 0x08	; 8
     302:	0f b6       	in	r0, 0x3f	; 63
     304:	f8 94       	cli
     306:	de bf       	out	0x3e, r29	; 62
     308:	0f be       	out	0x3f, r0	; 63
     30a:	cd bf       	out	0x3d, r28	; 61
     30c:	a3 2e       	mov	r10, r19
     30e:	b4 2e       	mov	r11, r20
     310:	c5 2e       	mov	r12, r21
     312:	d6 2e       	mov	r13, r22
     314:	e7 2e       	mov	r14, r23
     316:	f8 2e       	mov	r15, r24
     318:	82 2f       	mov	r24, r18
     31a:	0e 94 4f 00 	call	0x9e	; 0x9e <Dec2bcd>
     31e:	09 e7       	ldi	r16, 0x79	; 121
     320:	11 e0       	ldi	r17, 0x01	; 1
     322:	f8 01       	movw	r30, r16
     324:	80 83       	st	Z, r24
     326:	8a 2d       	mov	r24, r10
     328:	0e 94 4f 00 	call	0x9e	; 0x9e <Dec2bcd>
     32c:	f8 01       	movw	r30, r16
     32e:	81 83       	std	Z+1, r24	; 0x01
     330:	8b 2d       	mov	r24, r11
     332:	0e 94 4f 00 	call	0x9e	; 0x9e <Dec2bcd>
     336:	f8 01       	movw	r30, r16
     338:	82 83       	std	Z+2, r24	; 0x02
     33a:	8c 2d       	mov	r24, r12
     33c:	0e 94 4f 00 	call	0x9e	; 0x9e <Dec2bcd>
     340:	f8 01       	movw	r30, r16
     342:	83 83       	std	Z+3, r24	; 0x03
     344:	8d 2d       	mov	r24, r13
     346:	0e 94 4f 00 	call	0x9e	; 0x9e <Dec2bcd>
     34a:	f8 01       	movw	r30, r16
     34c:	84 83       	std	Z+4, r24	; 0x04
     34e:	8e 2d       	mov	r24, r14
     350:	0e 94 4f 00 	call	0x9e	; 0x9e <Dec2bcd>
     354:	f8 01       	movw	r30, r16
     356:	85 83       	std	Z+5, r24	; 0x05
     358:	80 e3       	ldi	r24, 0x30	; 48
     35a:	8f 0d       	add	r24, r15
     35c:	0e 94 4f 00 	call	0x9e	; 0x9e <Dec2bcd>
     360:	f8 01       	movw	r30, r16
     362:	86 83       	std	Z+6, r24	; 0x06
     364:	47 e0       	ldi	r20, 0x07	; 7
     366:	b8 01       	movw	r22, r16
     368:	80 e0       	ldi	r24, 0x00	; 0
     36a:	0e 94 5c 00 	call	0xb8	; 0xb8 <RTC_WriteBlock>
     36e:	28 96       	adiw	r28, 0x08	; 8
     370:	0f b6       	in	r0, 0x3f	; 63
     372:	f8 94       	cli
     374:	de bf       	out	0x3e, r29	; 62
     376:	0f be       	out	0x3f, r0	; 63
     378:	cd bf       	out	0x3d, r28	; 61
     37a:	df 91       	pop	r29
     37c:	cf 91       	pop	r28
     37e:	1f 91       	pop	r17
     380:	0f 91       	pop	r16
     382:	ff 90       	pop	r15
     384:	ef 90       	pop	r14
     386:	df 90       	pop	r13
     388:	cf 90       	pop	r12
     38a:	bf 90       	pop	r11
     38c:	af 90       	pop	r10
     38e:	08 95       	ret

00000390 <RTC_Get>:
     390:	cf 93       	push	r28
     392:	df 93       	push	r29
     394:	cd b7       	in	r28, 0x3d	; 61
     396:	de b7       	in	r29, 0x3e	; 62
     398:	28 97       	sbiw	r28, 0x08	; 8
     39a:	0f b6       	in	r0, 0x3f	; 63
     39c:	f8 94       	cli
     39e:	de bf       	out	0x3e, r29	; 62
     3a0:	0f be       	out	0x3f, r0	; 63
     3a2:	cd bf       	out	0x3d, r28	; 61
     3a4:	47 e0       	ldi	r20, 0x07	; 7
     3a6:	69 e7       	ldi	r22, 0x79	; 121
     3a8:	71 e0       	ldi	r23, 0x01	; 1
     3aa:	80 e0       	ldi	r24, 0x00	; 0
     3ac:	0e 94 bb 00 	call	0x176	; 0x176 <RTC_ReadBlock>
     3b0:	e9 e7       	ldi	r30, 0x79	; 121
     3b2:	f1 e0       	ldi	r31, 0x01	; 1
     3b4:	20 81       	ld	r18, Z
     3b6:	31 81       	ldd	r19, Z+1	; 0x01
     3b8:	42 81       	ldd	r20, Z+2	; 0x02
     3ba:	4f 73       	andi	r20, 0x3F	; 63
     3bc:	53 81       	ldd	r21, Z+3	; 0x03
     3be:	64 81       	ldd	r22, Z+4	; 0x04
     3c0:	75 81       	ldd	r23, Z+5	; 0x05
     3c2:	86 81       	ldd	r24, Z+6	; 0x06
     3c4:	92 2f       	mov	r25, r18
     3c6:	92 95       	swap	r25
     3c8:	9f 70       	andi	r25, 0x0F	; 15
     3ca:	e9 2f       	mov	r30, r25
     3cc:	ee 0f       	add	r30, r30
     3ce:	9e 0f       	add	r25, r30
     3d0:	99 0f       	add	r25, r25
     3d2:	29 1b       	sub	r18, r25
     3d4:	93 2f       	mov	r25, r19
     3d6:	92 95       	swap	r25
     3d8:	9f 70       	andi	r25, 0x0F	; 15
     3da:	e9 2f       	mov	r30, r25
     3dc:	ee 0f       	add	r30, r30
     3de:	9e 0f       	add	r25, r30
     3e0:	99 0f       	add	r25, r25
     3e2:	39 1b       	sub	r19, r25
     3e4:	94 2f       	mov	r25, r20
     3e6:	92 95       	swap	r25
     3e8:	9f 70       	andi	r25, 0x0F	; 15
     3ea:	e9 2f       	mov	r30, r25
     3ec:	ee 0f       	add	r30, r30
     3ee:	9e 0f       	add	r25, r30
     3f0:	99 0f       	add	r25, r25
     3f2:	49 1b       	sub	r20, r25
     3f4:	95 2f       	mov	r25, r21
     3f6:	92 95       	swap	r25
     3f8:	9f 70       	andi	r25, 0x0F	; 15
     3fa:	e9 2f       	mov	r30, r25
     3fc:	ee 0f       	add	r30, r30
     3fe:	9e 0f       	add	r25, r30
     400:	99 0f       	add	r25, r25
     402:	59 1b       	sub	r21, r25
     404:	96 2f       	mov	r25, r22
     406:	92 95       	swap	r25
     408:	9f 70       	andi	r25, 0x0F	; 15
     40a:	e9 2f       	mov	r30, r25
     40c:	ee 0f       	add	r30, r30
     40e:	9e 0f       	add	r25, r30
     410:	99 0f       	add	r25, r25
     412:	69 1b       	sub	r22, r25
     414:	97 2f       	mov	r25, r23
     416:	92 95       	swap	r25
     418:	9f 70       	andi	r25, 0x0F	; 15
     41a:	e9 2f       	mov	r30, r25
     41c:	ee 0f       	add	r30, r30
     41e:	9e 0f       	add	r25, r30
     420:	99 0f       	add	r25, r25
     422:	79 1b       	sub	r23, r25
     424:	98 2f       	mov	r25, r24
     426:	92 95       	swap	r25
     428:	9f 70       	andi	r25, 0x0F	; 15
     42a:	e9 2f       	mov	r30, r25
     42c:	ee 0f       	add	r30, r30
     42e:	9e 0f       	add	r25, r30
     430:	99 0f       	add	r25, r25
     432:	89 1b       	sub	r24, r25
     434:	90 e0       	ldi	r25, 0x00	; 0
     436:	80 53       	subi	r24, 0x30	; 48
     438:	98 4f       	sbci	r25, 0xF8	; 248
     43a:	98 87       	std	Y+8, r25	; 0x08
     43c:	8f 83       	std	Y+7, r24	; 0x07
     43e:	98 85       	ldd	r25, Y+8	; 0x08
     440:	28 96       	adiw	r28, 0x08	; 8
     442:	0f b6       	in	r0, 0x3f	; 63
     444:	f8 94       	cli
     446:	de bf       	out	0x3e, r29	; 62
     448:	0f be       	out	0x3f, r0	; 63
     44a:	cd bf       	out	0x3d, r28	; 61
     44c:	df 91       	pop	r29
     44e:	cf 91       	pop	r28
     450:	08 95       	ret

00000452 <RTC_AlarmSet>:

//Set alarm.
void RTC_AlarmSet(Alarm_Type_t Alarm, uint8_t DayDate, uint8_t Hours, uint8_t Minutes, uint8_t Seconds)
{
     452:	ef 92       	push	r14
     454:	ff 92       	push	r15
     456:	0f 93       	push	r16
     458:	1f 93       	push	r17
     45a:	cf 93       	push	r28
     45c:	df 93       	push	r29
     45e:	c8 2f       	mov	r28, r24
     460:	d6 2f       	mov	r29, r22
     462:	14 2f       	mov	r17, r20
     464:	e2 2e       	mov	r14, r18
     466:	80 2f       	mov	r24, r16
	uint8_t addr;

	//Convert all decimal values to their corresponding BCD values
	Seconds = Dec2bcd(Seconds);
     468:	0e 94 4f 00 	call	0x9e	; 0x9e <Dec2bcd>
     46c:	f8 2e       	mov	r15, r24
	Minutes = Dec2bcd(Minutes);
     46e:	8e 2d       	mov	r24, r14
     470:	0e 94 4f 00 	call	0x9e	; 0x9e <Dec2bcd>
     474:	08 2f       	mov	r16, r24
	Hours   = Dec2bcd(Hours);
     476:	81 2f       	mov	r24, r17
     478:	0e 94 4f 00 	call	0x9e	; 0x9e <Dec2bcd>
     47c:	18 2f       	mov	r17, r24
	DayDate = Dec2bcd(DayDate);	//Either Day or Date can be used. Not both.
     47e:	8d 2f       	mov	r24, r29
     480:	0e 94 4f 00 	call	0x9e	; 0x9e <Dec2bcd>
     484:	d8 2f       	mov	r29, r24
	
	//Set Alarm Control Bits based on Alarm Mask Bits
	//Seconds
	if (BitCheck(Alarm, 0))
     486:	c0 ff       	sbrs	r28, 0
     488:	03 c0       	rjmp	.+6      	; 0x490 <RTC_AlarmSet+0x3e>
		BitSet(Seconds, __RTC_A1M1);
     48a:	8f 2d       	mov	r24, r15
     48c:	80 68       	ori	r24, 0x80	; 128
     48e:	f8 2e       	mov	r15, r24
	//Minutes
	if (BitCheck(Alarm, 1))
     490:	c1 fd       	sbrc	r28, 1
		BitSet(Minutes, __RTC_A1M2);
     492:	00 68       	ori	r16, 0x80	; 128
	//Hours
	if (BitCheck(Alarm, 2))
     494:	c2 fd       	sbrc	r28, 2
		BitSet(Hours, __RTC_A1M3);
     496:	10 68       	ori	r17, 0x80	; 128
	//Day-Date value
	if (BitCheck(Alarm, 3))
     498:	c3 fd       	sbrc	r28, 3
		BitSet(DayDate, __RTC_A1M4);
     49a:	d0 68       	ori	r29, 0x80	; 128
	//Day-Date flag
	if (BitCheck(Alarm, 4))
     49c:	c4 fd       	sbrc	r28, 4
		BitSet(DayDate, __RTC_DYDT);
     49e:	d0 64       	ori	r29, 0x40	; 64
	
	//Send data (on consecutive address)
	//Alarm 2
	if (BitCheck(Alarm, 7))
     4a0:	cc 23       	and	r28, r28
     4a2:	34 f0       	brlt	.+12     	; 0x4b0 <RTC_AlarmSet+0x5e>
	//Alarm 1
	else
	{
		//Alarm 1 does have a seconds register
		addr = __RTC_Address_Alarm1_Seconds;
		RTC_WriteByte(addr++, Seconds);
     4a4:	6f 2d       	mov	r22, r15
     4a6:	87 e0       	ldi	r24, 0x07	; 7
     4a8:	0e 94 ab 00 	call	0x156	; 0x156 <RTC_WriteByte>
     4ac:	c8 e0       	ldi	r28, 0x08	; 8
     4ae:	01 c0       	rjmp	.+2      	; 0x4b2 <RTC_AlarmSet+0x60>
	//Send data (on consecutive address)
	//Alarm 2
	if (BitCheck(Alarm, 7))
	{
		//Alarm 2 does not have seconds register
		addr = __RTC_Address_Alarm2_Minutes;
     4b0:	cb e0       	ldi	r28, 0x0B	; 11
	{
		//Alarm 1 does have a seconds register
		addr = __RTC_Address_Alarm1_Seconds;
		RTC_WriteByte(addr++, Seconds);
	}
	RTC_WriteByte(addr++, Minutes);
     4b2:	60 2f       	mov	r22, r16
     4b4:	8c 2f       	mov	r24, r28
     4b6:	0e 94 ab 00 	call	0x156	; 0x156 <RTC_WriteByte>
	RTC_WriteByte(addr++, Hours);
     4ba:	61 2f       	mov	r22, r17
     4bc:	81 e0       	ldi	r24, 0x01	; 1
     4be:	8c 0f       	add	r24, r28
     4c0:	0e 94 ab 00 	call	0x156	; 0x156 <RTC_WriteByte>
	RTC_WriteByte(addr++, DayDate);
     4c4:	6d 2f       	mov	r22, r29
     4c6:	82 e0       	ldi	r24, 0x02	; 2
     4c8:	8c 0f       	add	r24, r28
     4ca:	0e 94 ab 00 	call	0x156	; 0x156 <RTC_WriteByte>
}
     4ce:	df 91       	pop	r29
     4d0:	cf 91       	pop	r28
     4d2:	1f 91       	pop	r17
     4d4:	0f 91       	pop	r16
     4d6:	ff 90       	pop	r15
     4d8:	ef 90       	pop	r14
     4da:	08 95       	ret

000004dc <RTC_AlarmInterrupt>:

//Set alarm interrupt pin 
uint8_t RTC_AlarmInterrupt(Alarm_Number_t Alarm, uint8_t Enable)
{
     4dc:	cf 93       	push	r28
     4de:	df 93       	push	r29
     4e0:	d8 2f       	mov	r29, r24
     4e2:	c6 2f       	mov	r28, r22
	//Enable INTCN
	FlagWrite(__RTC_Address_Control, __RTC_INTCN, Enable);
     4e4:	46 2f       	mov	r20, r22
     4e6:	62 e0       	ldi	r22, 0x02	; 2
     4e8:	8e e0       	ldi	r24, 0x0E	; 14
     4ea:	0e 94 41 01 	call	0x282	; 0x282 <FlagWrite>
		
	//Enable alarm
	return (FlagWrite(__RTC_Address_Control, Alarm, Enable));
     4ee:	4c 2f       	mov	r20, r28
     4f0:	6d 2f       	mov	r22, r29
     4f2:	8e e0       	ldi	r24, 0x0E	; 14
     4f4:	0e 94 41 01 	call	0x282	; 0x282 <FlagWrite>
}
     4f8:	df 91       	pop	r29
     4fa:	cf 91       	pop	r28
     4fc:	08 95       	ret

000004fe <RTC_AlarmCheck>:

//Check if alarm rung. 
uint8_t RTC_AlarmCheck(Alarm_Number_t Alarm)
{
	return (FlagWrite(__RTC_Address_Status, Alarm, False));
     4fe:	40 e0       	ldi	r20, 0x00	; 0
     500:	68 2f       	mov	r22, r24
     502:	8f e0       	ldi	r24, 0x0F	; 15
     504:	0e 94 41 01 	call	0x282	; 0x282 <FlagWrite>
}
     508:	08 95       	ret

0000050a <timer2_init>:
uint32_t timer_counter = 0;
uint32_t sensor_distance;

void timer2_init(void)
{
  TIMSK |= (1 << TOIE2);
     50a:	89 b7       	in	r24, 0x39	; 57
     50c:	80 64       	ori	r24, 0x40	; 64
     50e:	89 bf       	out	0x39, r24	; 57
  TCCR2 = (1 << CS21);
     510:	82 e0       	ldi	r24, 0x02	; 2
     512:	85 bd       	out	0x25, r24	; 37
  TCNT2 = 0;
     514:	14 bc       	out	0x24, r1	; 36
     516:	08 95       	ret

00000518 <enable_ex_interrupt>:
  return;
}

void enable_ex_interrupt(void)
{
  MCUCR |= (1 << ISC00);
     518:	85 b7       	in	r24, 0x35	; 53
     51a:	81 60       	ori	r24, 0x01	; 1
     51c:	85 bf       	out	0x35, r24	; 53
  GICR |= (1 << INT0);
     51e:	8b b7       	in	r24, 0x3b	; 59
     520:	80 64       	ori	r24, 0x40	; 64
     522:	8b bf       	out	0x3b, r24	; 59
     524:	08 95       	ret

00000526 <ultrasonic_init>:
  TCNT2 = 0;
}

void ultrasonic_init(void)
{
  TRIGER_DDR |= (1 << TRIGER);
     526:	8c 9a       	sbi	0x11, 4	; 17
  ECHO_DDR &= ~(1 << ECHO);
     528:	8a 98       	cbi	0x11, 2	; 17
  ECHO_PULLUP |= (1 << ECHO);
     52a:	92 9a       	sbi	0x12, 2	; 18
  enable_ex_interrupt();
     52c:	0e 94 8c 02 	call	0x518	; 0x518 <enable_ex_interrupt>
  timer2_init();
     530:	0e 94 85 02 	call	0x50a	; 0x50a <timer2_init>
     534:	08 95       	ret

00000536 <ultrasonic_triger>:
  return;
}

uint32_t ultrasonic_triger(void)
{
  if (!sensor_working)
     536:	80 91 67 01 	lds	r24, 0x0167	; 0x800167 <sensor_working>
     53a:	81 11       	cpse	r24, r1
     53c:	08 c0       	rjmp	.+16     	; 0x54e <ultrasonic_triger+0x18>
  {
    TRIGER_PORT |= (1 << TRIGER);
     53e:	94 9a       	sbi	0x12, 4	; 18
	#else
		//round up by default
		__ticks_dc = (uint32_t)(ceil(fabs(__tmp)));
	#endif

	__builtin_avr_delay_cycles(__ticks_dc);
     540:	88 e2       	ldi	r24, 0x28	; 40
     542:	8a 95       	dec	r24
     544:	f1 f7       	brne	.-4      	; 0x542 <ultrasonic_triger+0xc>
    _delay_us(15);
    TRIGER_PORT &= ~(1 << TRIGER);
     546:	94 98       	cbi	0x12, 4	; 18
    sensor_working = 1;
     548:	81 e0       	ldi	r24, 0x01	; 1
     54a:	80 93 67 01 	sts	0x0167, r24	; 0x800167 <sensor_working>
  }
  return sensor_distance;
     54e:	60 91 80 01 	lds	r22, 0x0180	; 0x800180 <sensor_distance>
     552:	70 91 81 01 	lds	r23, 0x0181	; 0x800181 <sensor_distance+0x1>
     556:	80 91 82 01 	lds	r24, 0x0182	; 0x800182 <sensor_distance+0x2>
     55a:	90 91 83 01 	lds	r25, 0x0183	; 0x800183 <sensor_distance+0x3>
}
     55e:	08 95       	ret

00000560 <__vector_1>:

ISR(INT0_vect)
{
     560:	1f 92       	push	r1
     562:	0f 92       	push	r0
     564:	0f b6       	in	r0, 0x3f	; 63
     566:	0f 92       	push	r0
     568:	11 24       	eor	r1, r1
     56a:	2f 93       	push	r18
     56c:	3f 93       	push	r19
     56e:	4f 93       	push	r20
     570:	5f 93       	push	r21
     572:	6f 93       	push	r22
     574:	7f 93       	push	r23
     576:	8f 93       	push	r24
     578:	9f 93       	push	r25
     57a:	af 93       	push	r26
     57c:	bf 93       	push	r27
     57e:	ef 93       	push	r30
     580:	ff 93       	push	r31
  if (sensor_working == 1)
     582:	80 91 67 01 	lds	r24, 0x0167	; 0x800167 <sensor_working>
     586:	81 30       	cpi	r24, 0x01	; 1
     588:	09 f0       	breq	.+2      	; 0x58c <__vector_1+0x2c>
     58a:	45 c0       	rjmp	.+138    	; 0x616 <__vector_1+0xb6>
  {
    if (rising_edge == 0)
     58c:	80 91 66 01 	lds	r24, 0x0166	; 0x800166 <rising_edge>
     590:	81 11       	cpse	r24, r1
     592:	0d c0       	rjmp	.+26     	; 0x5ae <__vector_1+0x4e>
    {
      TCNT2 = 0;
     594:	14 bc       	out	0x24, r1	; 36
      rising_edge = 1;
     596:	81 e0       	ldi	r24, 0x01	; 1
     598:	80 93 66 01 	sts	0x0166, r24	; 0x800166 <rising_edge>
      timer_counter = 0;
     59c:	10 92 62 01 	sts	0x0162, r1	; 0x800162 <__data_end>
     5a0:	10 92 63 01 	sts	0x0163, r1	; 0x800163 <__data_end+0x1>
     5a4:	10 92 64 01 	sts	0x0164, r1	; 0x800164 <__data_end+0x2>
     5a8:	10 92 65 01 	sts	0x0165, r1	; 0x800165 <__data_end+0x3>
     5ac:	34 c0       	rjmp	.+104    	; 0x616 <__vector_1+0xb6>
    }
    else
    {
      sensor_distance = ((timer_counter * 256 + TCNT2) / 58);
     5ae:	24 b5       	in	r18, 0x24	; 36
     5b0:	80 91 62 01 	lds	r24, 0x0162	; 0x800162 <__data_end>
     5b4:	90 91 63 01 	lds	r25, 0x0163	; 0x800163 <__data_end+0x1>
     5b8:	a0 91 64 01 	lds	r26, 0x0164	; 0x800164 <__data_end+0x2>
     5bc:	b0 91 65 01 	lds	r27, 0x0165	; 0x800165 <__data_end+0x3>
     5c0:	ba 2f       	mov	r27, r26
     5c2:	a9 2f       	mov	r26, r25
     5c4:	98 2f       	mov	r25, r24
     5c6:	88 27       	eor	r24, r24
     5c8:	bc 01       	movw	r22, r24
     5ca:	cd 01       	movw	r24, r26
     5cc:	62 0f       	add	r22, r18
     5ce:	71 1d       	adc	r23, r1
     5d0:	81 1d       	adc	r24, r1
     5d2:	91 1d       	adc	r25, r1
     5d4:	2a e3       	ldi	r18, 0x3A	; 58
     5d6:	30 e0       	ldi	r19, 0x00	; 0
     5d8:	40 e0       	ldi	r20, 0x00	; 0
     5da:	50 e0       	ldi	r21, 0x00	; 0
     5dc:	0e 94 9c 0b 	call	0x1738	; 0x1738 <__udivmodsi4>
     5e0:	20 93 80 01 	sts	0x0180, r18	; 0x800180 <sensor_distance>
     5e4:	30 93 81 01 	sts	0x0181, r19	; 0x800181 <sensor_distance+0x1>
     5e8:	40 93 82 01 	sts	0x0182, r20	; 0x800182 <sensor_distance+0x2>
     5ec:	50 93 83 01 	sts	0x0183, r21	; 0x800183 <sensor_distance+0x3>
	#else
		//round up by default
		__ticks_dc = (uint32_t)(ceil(fabs(__tmp)));
	#endif

	__builtin_avr_delay_cycles(__ticks_dc);
     5f0:	2f ef       	ldi	r18, 0xFF	; 255
     5f2:	89 ef       	ldi	r24, 0xF9	; 249
     5f4:	90 e0       	ldi	r25, 0x00	; 0
     5f6:	21 50       	subi	r18, 0x01	; 1
     5f8:	80 40       	sbci	r24, 0x00	; 0
     5fa:	90 40       	sbci	r25, 0x00	; 0
     5fc:	e1 f7       	brne	.-8      	; 0x5f6 <__vector_1+0x96>
     5fe:	00 c0       	rjmp	.+0      	; 0x600 <__vector_1+0xa0>
     600:	00 00       	nop
      _delay_ms(40);
      timer_counter = 0;
     602:	10 92 62 01 	sts	0x0162, r1	; 0x800162 <__data_end>
     606:	10 92 63 01 	sts	0x0163, r1	; 0x800163 <__data_end+0x1>
     60a:	10 92 64 01 	sts	0x0164, r1	; 0x800164 <__data_end+0x2>
     60e:	10 92 65 01 	sts	0x0165, r1	; 0x800165 <__data_end+0x3>
      rising_edge = 0;
     612:	10 92 66 01 	sts	0x0166, r1	; 0x800166 <rising_edge>
    }
  }
}
     616:	ff 91       	pop	r31
     618:	ef 91       	pop	r30
     61a:	bf 91       	pop	r27
     61c:	af 91       	pop	r26
     61e:	9f 91       	pop	r25
     620:	8f 91       	pop	r24
     622:	7f 91       	pop	r23
     624:	6f 91       	pop	r22
     626:	5f 91       	pop	r21
     628:	4f 91       	pop	r20
     62a:	3f 91       	pop	r19
     62c:	2f 91       	pop	r18
     62e:	0f 90       	pop	r0
     630:	0f be       	out	0x3f, r0	; 63
     632:	0f 90       	pop	r0
     634:	1f 90       	pop	r1
     636:	18 95       	reti

00000638 <__vector_5>:

ISR(TIMER2_OVF_vect)
{
     638:	1f 92       	push	r1
     63a:	0f 92       	push	r0
     63c:	0f b6       	in	r0, 0x3f	; 63
     63e:	0f 92       	push	r0
     640:	11 24       	eor	r1, r1
     642:	2f 93       	push	r18
     644:	8f 93       	push	r24
     646:	9f 93       	push	r25
     648:	af 93       	push	r26
     64a:	bf 93       	push	r27
  timer_counter++;
     64c:	80 91 62 01 	lds	r24, 0x0162	; 0x800162 <__data_end>
     650:	90 91 63 01 	lds	r25, 0x0163	; 0x800163 <__data_end+0x1>
     654:	a0 91 64 01 	lds	r26, 0x0164	; 0x800164 <__data_end+0x2>
     658:	b0 91 65 01 	lds	r27, 0x0165	; 0x800165 <__data_end+0x3>
     65c:	01 96       	adiw	r24, 0x01	; 1
     65e:	a1 1d       	adc	r26, r1
     660:	b1 1d       	adc	r27, r1
     662:	80 93 62 01 	sts	0x0162, r24	; 0x800162 <__data_end>
     666:	90 93 63 01 	sts	0x0163, r25	; 0x800163 <__data_end+0x1>
     66a:	a0 93 64 01 	sts	0x0164, r26	; 0x800164 <__data_end+0x2>
     66e:	b0 93 65 01 	sts	0x0165, r27	; 0x800165 <__data_end+0x3>
  if (timer_counter > 730)
     672:	8b 3d       	cpi	r24, 0xDB	; 219
     674:	92 40       	sbci	r25, 0x02	; 2
     676:	a1 05       	cpc	r26, r1
     678:	b1 05       	cpc	r27, r1
     67a:	68 f0       	brcs	.+26     	; 0x696 <__vector_5+0x5e>
  {
	  TCNT2 = 0;
     67c:	14 bc       	out	0x24, r1	; 36
	  sensor_working = 0;
     67e:	10 92 67 01 	sts	0x0167, r1	; 0x800167 <sensor_working>
	  rising_edge = 0;
     682:	10 92 66 01 	sts	0x0166, r1	; 0x800166 <rising_edge>
	  timer_counter = 0;
     686:	10 92 62 01 	sts	0x0162, r1	; 0x800162 <__data_end>
     68a:	10 92 63 01 	sts	0x0163, r1	; 0x800163 <__data_end+0x1>
     68e:	10 92 64 01 	sts	0x0164, r1	; 0x800164 <__data_end+0x2>
     692:	10 92 65 01 	sts	0x0165, r1	; 0x800165 <__data_end+0x3>
  }
}
     696:	bf 91       	pop	r27
     698:	af 91       	pop	r26
     69a:	9f 91       	pop	r25
     69c:	8f 91       	pop	r24
     69e:	2f 91       	pop	r18
     6a0:	0f 90       	pop	r0
     6a2:	0f be       	out	0x3f, r0	; 63
     6a4:	0f 90       	pop	r0
     6a6:	1f 90       	pop	r1
     6a8:	18 95       	reti

000006aa <i2c_master_init>:
	}
	
	i2c_master_stop();
	
	return I2C_STATUS_SUCCESS;
}
     6aa:	9b 01       	movw	r18, r22
     6ac:	ac 01       	movw	r20, r24
     6ae:	11 b8       	out	0x01, r1	; 1
     6b0:	60 e0       	ldi	r22, 0x00	; 0
     6b2:	72 e1       	ldi	r23, 0x12	; 18
     6b4:	8a e7       	ldi	r24, 0x7A	; 122
     6b6:	90 e0       	ldi	r25, 0x00	; 0
     6b8:	0e 94 9c 0b 	call	0x1738	; 0x1738 <__udivmodsi4>
     6bc:	da 01       	movw	r26, r20
     6be:	c9 01       	movw	r24, r18
     6c0:	40 97       	sbiw	r24, 0x10	; 16
     6c2:	a1 09       	sbc	r26, r1
     6c4:	b1 09       	sbc	r27, r1
     6c6:	b6 95       	lsr	r27
     6c8:	a7 95       	ror	r26
     6ca:	97 95       	ror	r25
     6cc:	87 95       	ror	r24
     6ce:	80 b9       	out	0x00, r24	; 0
     6d0:	08 95       	ret

000006d2 <i2c_master_start>:
     6d2:	16 be       	out	0x36, r1	; 54
     6d4:	94 ea       	ldi	r25, 0xA4	; 164
     6d6:	96 bf       	out	0x36, r25	; 54
     6d8:	06 b6       	in	r0, 0x36	; 54
     6da:	07 fe       	sbrs	r0, 7
     6dc:	fd cf       	rjmp	.-6      	; 0x6d8 <i2c_master_start+0x6>
     6de:	91 b1       	in	r25, 0x01	; 1
     6e0:	98 7f       	andi	r25, 0xF8	; 248
     6e2:	98 30       	cpi	r25, 0x08	; 8
     6e4:	11 f0       	breq	.+4      	; 0x6ea <i2c_master_start+0x18>
     6e6:	90 31       	cpi	r25, 0x10	; 16
     6e8:	81 f4       	brne	.+32     	; 0x70a <i2c_master_start+0x38>
     6ea:	88 0f       	add	r24, r24
     6ec:	68 2b       	or	r22, r24
     6ee:	63 b9       	out	0x03, r22	; 3
     6f0:	84 e8       	ldi	r24, 0x84	; 132
     6f2:	86 bf       	out	0x36, r24	; 54
     6f4:	06 b6       	in	r0, 0x36	; 54
     6f6:	07 fe       	sbrs	r0, 7
     6f8:	fd cf       	rjmp	.-6      	; 0x6f4 <i2c_master_start+0x22>
     6fa:	81 b1       	in	r24, 0x01	; 1
     6fc:	88 7f       	andi	r24, 0xF8	; 248
     6fe:	88 31       	cpi	r24, 0x18	; 24
     700:	31 f0       	breq	.+12     	; 0x70e <i2c_master_start+0x3c>
     702:	80 34       	cpi	r24, 0x40	; 64
     704:	31 f0       	breq	.+12     	; 0x712 <i2c_master_start+0x40>
     706:	84 e1       	ldi	r24, 0x14	; 20
     708:	08 95       	ret
     70a:	8a e0       	ldi	r24, 0x0A	; 10
     70c:	08 95       	ret
     70e:	80 e0       	ldi	r24, 0x00	; 0
     710:	08 95       	ret
     712:	80 e0       	ldi	r24, 0x00	; 0
     714:	08 95       	ret

00000716 <i2c_master_write>:
     716:	83 b9       	out	0x03, r24	; 3
     718:	84 e8       	ldi	r24, 0x84	; 132
     71a:	86 bf       	out	0x36, r24	; 54
     71c:	06 b6       	in	r0, 0x36	; 54
     71e:	07 fe       	sbrs	r0, 7
     720:	fd cf       	rjmp	.-6      	; 0x71c <i2c_master_write+0x6>
     722:	81 b1       	in	r24, 0x01	; 1
     724:	88 7f       	andi	r24, 0xF8	; 248
     726:	88 32       	cpi	r24, 0x28	; 40
     728:	11 f4       	brne	.+4      	; 0x72e <i2c_master_write+0x18>
     72a:	80 e0       	ldi	r24, 0x00	; 0
     72c:	08 95       	ret
     72e:	85 e1       	ldi	r24, 0x15	; 21
     730:	08 95       	ret

00000732 <i2c_master_sendByte>:

uint8_t i2c_master_sendByte(uint8_t address, uint8_t data)
{
     732:	cf 93       	push	r28
     734:	c6 2f       	mov	r28, r22
	uint8_t status = i2c_master_start(address, I2C_WRITE);
     736:	60 e0       	ldi	r22, 0x00	; 0
     738:	0e 94 69 03 	call	0x6d2	; 0x6d2 <i2c_master_start>
	if (status) return status;
     73c:	81 11       	cpse	r24, r1
     73e:	07 c0       	rjmp	.+14     	; 0x74e <i2c_master_sendByte+0x1c>

	status = i2c_master_write(data);
     740:	8c 2f       	mov	r24, r28
     742:	0e 94 8b 03 	call	0x716	; 0x716 <i2c_master_write>
	if (status) return status;
     746:	81 11       	cpse	r24, r1
     748:	02 c0       	rjmp	.+4      	; 0x74e <i2c_master_sendByte+0x1c>
	return I2C_STATUS_SUCCESS;
}

void i2c_master_stop(void)
{
	TWCR = (1<<TWINT) | (1<<TWEN) | (1<<TWSTO);
     74a:	94 e9       	ldi	r25, 0x94	; 148
     74c:	96 bf       	out	0x36, r25	; 54
	if (status) return status;

	i2c_master_stop();
	
	return I2C_STATUS_SUCCESS;
};
     74e:	cf 91       	pop	r28
     750:	08 95       	ret

00000752 <lq_transmitI2C>:

	for (i = 0; i < 8; i++)
	{
		lq_writeDeviceByte(device, charmap[i], LCD_REGISTER_SELECT_BIT);
	}
}
     752:	fc 01       	movw	r30, r24
     754:	93 81       	ldd	r25, Z+3	; 0x03
     756:	69 2b       	or	r22, r25
     758:	80 81       	ld	r24, Z
     75a:	0e 94 99 03 	call	0x732	; 0x732 <i2c_master_sendByte>
     75e:	08 95       	ret

00000760 <lq_writeDevicePulse>:
     760:	0f 93       	push	r16
     762:	1f 93       	push	r17
     764:	cf 93       	push	r28
     766:	8c 01       	movw	r16, r24
     768:	c6 2f       	mov	r28, r22
     76a:	64 60       	ori	r22, 0x04	; 4
     76c:	0e 94 a9 03 	call	0x752	; 0x752 <lq_transmitI2C>
     770:	85 e0       	ldi	r24, 0x05	; 5
     772:	8a 95       	dec	r24
     774:	f1 f7       	brne	.-4      	; 0x772 <lq_writeDevicePulse+0x12>
     776:	00 00       	nop
     778:	6c 2f       	mov	r22, r28
     77a:	6b 7f       	andi	r22, 0xFB	; 251
     77c:	c8 01       	movw	r24, r16
     77e:	0e 94 a9 03 	call	0x752	; 0x752 <lq_transmitI2C>
     782:	85 e8       	ldi	r24, 0x85	; 133
     784:	8a 95       	dec	r24
     786:	f1 f7       	brne	.-4      	; 0x784 <lq_writeDevicePulse+0x24>
     788:	00 00       	nop
     78a:	cf 91       	pop	r28
     78c:	1f 91       	pop	r17
     78e:	0f 91       	pop	r16
     790:	08 95       	ret

00000792 <lq_writeDevice4Bits>:
     792:	1f 93       	push	r17
     794:	cf 93       	push	r28
     796:	df 93       	push	r29
     798:	ec 01       	movw	r28, r24
     79a:	16 2f       	mov	r17, r22
     79c:	0e 94 a9 03 	call	0x752	; 0x752 <lq_transmitI2C>
     7a0:	61 2f       	mov	r22, r17
     7a2:	ce 01       	movw	r24, r28
     7a4:	0e 94 b0 03 	call	0x760	; 0x760 <lq_writeDevicePulse>
     7a8:	df 91       	pop	r29
     7aa:	cf 91       	pop	r28
     7ac:	1f 91       	pop	r17
     7ae:	08 95       	ret

000007b0 <lq_writeDeviceByte>:
     7b0:	0f 93       	push	r16
     7b2:	1f 93       	push	r17
     7b4:	cf 93       	push	r28
     7b6:	df 93       	push	r29
     7b8:	8c 01       	movw	r16, r24
     7ba:	c6 2f       	mov	r28, r22
     7bc:	d4 2f       	mov	r29, r20
     7be:	60 7f       	andi	r22, 0xF0	; 240
     7c0:	64 2b       	or	r22, r20
     7c2:	0e 94 c9 03 	call	0x792	; 0x792 <lq_writeDevice4Bits>
     7c6:	80 e1       	ldi	r24, 0x10	; 16
     7c8:	c8 9f       	mul	r28, r24
     7ca:	b0 01       	movw	r22, r0
     7cc:	11 24       	eor	r1, r1
     7ce:	6d 2b       	or	r22, r29
     7d0:	c8 01       	movw	r24, r16
     7d2:	0e 94 c9 03 	call	0x792	; 0x792 <lq_writeDevice4Bits>
     7d6:	df 91       	pop	r29
     7d8:	cf 91       	pop	r28
     7da:	1f 91       	pop	r17
     7dc:	0f 91       	pop	r16
     7de:	08 95       	ret

000007e0 <lq_print>:
     7e0:	0f 93       	push	r16
     7e2:	1f 93       	push	r17
     7e4:	cf 93       	push	r28
     7e6:	df 93       	push	r29
     7e8:	eb 01       	movw	r28, r22
     7ea:	68 81       	ld	r22, Y
     7ec:	66 23       	and	r22, r22
     7ee:	49 f0       	breq	.+18     	; 0x802 <lq_print+0x22>
     7f0:	8c 01       	movw	r16, r24
     7f2:	21 96       	adiw	r28, 0x01	; 1
     7f4:	41 e0       	ldi	r20, 0x01	; 1
     7f6:	c8 01       	movw	r24, r16
     7f8:	0e 94 d8 03 	call	0x7b0	; 0x7b0 <lq_writeDeviceByte>
     7fc:	69 91       	ld	r22, Y+
     7fe:	61 11       	cpse	r22, r1
     800:	f9 cf       	rjmp	.-14     	; 0x7f4 <lq_print+0x14>
     802:	df 91       	pop	r29
     804:	cf 91       	pop	r28
     806:	1f 91       	pop	r17
     808:	0f 91       	pop	r16
     80a:	08 95       	ret

0000080c <lq_sendCommand>:
     80c:	40 e0       	ldi	r20, 0x00	; 0
     80e:	0e 94 d8 03 	call	0x7b0	; 0x7b0 <lq_writeDeviceByte>
     812:	08 95       	ret

00000814 <lq_setCursor>:
     814:	cf 93       	push	r28
     816:	df 93       	push	r29
     818:	00 d0       	rcall	.+0      	; 0x81a <lq_setCursor+0x6>
     81a:	00 d0       	rcall	.+0      	; 0x81c <lq_setCursor+0x8>
     81c:	cd b7       	in	r28, 0x3d	; 61
     81e:	de b7       	in	r29, 0x3e	; 62
     820:	19 82       	std	Y+1, r1	; 0x01
     822:	20 e4       	ldi	r18, 0x40	; 64
     824:	2a 83       	std	Y+2, r18	; 0x02
     826:	24 e1       	ldi	r18, 0x14	; 20
     828:	2b 83       	std	Y+3, r18	; 0x03
     82a:	24 e5       	ldi	r18, 0x54	; 84
     82c:	2c 83       	std	Y+4, r18	; 0x04
     82e:	fe 01       	movw	r30, r28
     830:	e6 0f       	add	r30, r22
     832:	f1 1d       	adc	r31, r1
     834:	21 81       	ldd	r18, Z+1	; 0x01
     836:	64 2f       	mov	r22, r20
     838:	62 0f       	add	r22, r18
     83a:	60 68       	ori	r22, 0x80	; 128
     83c:	0e 94 06 04 	call	0x80c	; 0x80c <lq_sendCommand>
     840:	0f 90       	pop	r0
     842:	0f 90       	pop	r0
     844:	0f 90       	pop	r0
     846:	0f 90       	pop	r0
     848:	df 91       	pop	r29
     84a:	cf 91       	pop	r28
     84c:	08 95       	ret

0000084e <lq_clear>:
     84e:	cf 93       	push	r28
     850:	df 93       	push	r29
     852:	ec 01       	movw	r28, r24
     854:	61 e0       	ldi	r22, 0x01	; 1
     856:	0e 94 06 04 	call	0x80c	; 0x80c <lq_sendCommand>
     85a:	8f e9       	ldi	r24, 0x9F	; 159
     85c:	9f e0       	ldi	r25, 0x0F	; 15
     85e:	01 97       	sbiw	r24, 0x01	; 1
     860:	f1 f7       	brne	.-4      	; 0x85e <lq_clear+0x10>
     862:	00 c0       	rjmp	.+0      	; 0x864 <__stack+0x5>
     864:	00 00       	nop
     866:	40 e0       	ldi	r20, 0x00	; 0
     868:	60 e0       	ldi	r22, 0x00	; 0
     86a:	ce 01       	movw	r24, r28
     86c:	0e 94 0a 04 	call	0x814	; 0x814 <lq_setCursor>
     870:	df 91       	pop	r29
     872:	cf 91       	pop	r28
     874:	08 95       	ret

00000876 <lq_returnHome>:
     876:	62 e0       	ldi	r22, 0x02	; 2
     878:	0e 94 06 04 	call	0x80c	; 0x80c <lq_sendCommand>
     87c:	8f e9       	ldi	r24, 0x9F	; 159
     87e:	9f e0       	ldi	r25, 0x0F	; 15
     880:	01 97       	sbiw	r24, 0x01	; 1
     882:	f1 f7       	brne	.-4      	; 0x880 <lq_returnHome+0xa>
     884:	00 c0       	rjmp	.+0      	; 0x886 <lq_returnHome+0x10>
     886:	00 00       	nop
     888:	08 95       	ret

0000088a <lq_turnOnDisplay>:
     88a:	fc 01       	movw	r30, r24
     88c:	65 81       	ldd	r22, Z+5	; 0x05
     88e:	26 2f       	mov	r18, r22
     890:	24 60       	ori	r18, 0x04	; 4
     892:	25 83       	std	Z+5, r18	; 0x05
     894:	6c 60       	ori	r22, 0x0C	; 12
     896:	0e 94 06 04 	call	0x80c	; 0x80c <lq_sendCommand>
     89a:	08 95       	ret

0000089c <lq_init>:

#include <avr/io.h>
#include <util/delay.h>

LiquidCrystalDevice_t lq_init(uint8_t address, uint8_t columns, uint8_t rows, uint8_t dotSize)
{
     89c:	cf 93       	push	r28
     89e:	df 93       	push	r29
     8a0:	cd b7       	in	r28, 0x3d	; 61
     8a2:	de b7       	in	r29, 0x3e	; 62
     8a4:	2e 97       	sbiw	r28, 0x0e	; 14
     8a6:	0f b6       	in	r0, 0x3f	; 63
     8a8:	f8 94       	cli
     8aa:	de bf       	out	0x3e, r29	; 62
     8ac:	0f be       	out	0x3f, r0	; 63
     8ae:	cd bf       	out	0x3d, r28	; 61
	LiquidCrystalDevice_t device;

	device.Address = address;
     8b0:	88 87       	std	Y+8, r24	; 0x08
	device.Columns = columns;
     8b2:	69 87       	std	Y+9, r22	; 0x09
	device.Rows = rows;
     8b4:	4a 87       	std	Y+10, r20	; 0x0a
	device.Backlight = LCD_NOBACKLIGHT;
     8b6:	1b 86       	std	Y+11, r1	; 0x0b
	device.DisplayFunction = LCD_4BITMODE | LCD_1LINE | dotSize;
     8b8:	2c 87       	std	Y+12, r18	; 0x0c
	device.DisplayControl = LCD_DISPLAYON | LCD_CURSOROFF | LCD_BLINKOFF;
     8ba:	84 e0       	ldi	r24, 0x04	; 4
     8bc:	8d 87       	std	Y+13, r24	; 0x0d

	// Initialize to default text direction (for roman languages)
	device.DisplayMode = LCD_ENTRYLEFT | LCD_ENTRYSHIFTDECREMENT;
     8be:	82 e0       	ldi	r24, 0x02	; 2
     8c0:	8e 87       	std	Y+14, r24	; 0x0e

	if (rows > 1) {
     8c2:	42 30       	cpi	r20, 0x02	; 2
     8c4:	18 f0       	brcs	.+6      	; 0x8cc <lq_init+0x30>
		device.DisplayFunction |= LCD_2LINE;
     8c6:	82 2f       	mov	r24, r18
     8c8:	88 60       	ori	r24, 0x08	; 8
     8ca:	8c 87       	std	Y+12, r24	; 0x0c
	}

	// for some 1 line displays you can select a 10 pixel high font
	if ((dotSize != 0) && (rows == 1)) {
     8cc:	22 23       	and	r18, r18
     8ce:	29 f0       	breq	.+10     	; 0x8da <lq_init+0x3e>
     8d0:	41 30       	cpi	r20, 0x01	; 1
     8d2:	19 f4       	brne	.+6      	; 0x8da <lq_init+0x3e>
		device.DisplayFunction |= LCD_5x10DOTS;
     8d4:	8c 85       	ldd	r24, Y+12	; 0x0c
     8d6:	84 60       	ori	r24, 0x04	; 4
     8d8:	8c 87       	std	Y+12, r24	; 0x0c
     8da:	2f ef       	ldi	r18, 0xFF	; 255
     8dc:	80 e7       	ldi	r24, 0x70	; 112
     8de:	92 e0       	ldi	r25, 0x02	; 2
     8e0:	21 50       	subi	r18, 0x01	; 1
     8e2:	80 40       	sbci	r24, 0x00	; 0
     8e4:	90 40       	sbci	r25, 0x00	; 0
     8e6:	e1 f7       	brne	.-8      	; 0x8e0 <lq_init+0x44>
     8e8:	00 c0       	rjmp	.+0      	; 0x8ea <lq_init+0x4e>
     8ea:	00 00       	nop
	// according to datasheet, we need at least 40ms after power rises above 2.7V
	// before sending commands. Arduino can turn on way befer 4.5V so we'll wait 50
	_delay_ms(100);
	
	// Now we pull both RS and R/W low to begin commands
	lq_transmitI2C(&device, LCD_NOBACKLIGHT);	// reset expanderand turn backlight off (Bit 8 =1)
     8ec:	60 e0       	ldi	r22, 0x00	; 0
     8ee:	ce 01       	movw	r24, r28
     8f0:	08 96       	adiw	r24, 0x08	; 8
     8f2:	0e 94 a9 03 	call	0x752	; 0x752 <lq_transmitI2C>
     8f6:	2f ef       	ldi	r18, 0xFF	; 255
     8f8:	80 e7       	ldi	r24, 0x70	; 112
     8fa:	92 e0       	ldi	r25, 0x02	; 2
     8fc:	21 50       	subi	r18, 0x01	; 1
     8fe:	80 40       	sbci	r24, 0x00	; 0
     900:	90 40       	sbci	r25, 0x00	; 0
     902:	e1 f7       	brne	.-8      	; 0x8fc <lq_init+0x60>
     904:	00 c0       	rjmp	.+0      	; 0x906 <lq_init+0x6a>
     906:	00 00       	nop
	//put the LCD into 4 bit mode
	// this is according to the hitachi HD44780 datasheet
	// figure 24, pg 46
	
	// we start in 8bit mode, try to set 4 bit mode
	lq_transmitI2C(&device, 0x03 << 4);
     908:	60 e3       	ldi	r22, 0x30	; 48
     90a:	ce 01       	movw	r24, r28
     90c:	08 96       	adiw	r24, 0x08	; 8
     90e:	0e 94 a9 03 	call	0x752	; 0x752 <lq_transmitI2C>
	#else
		//round up by default
		__ticks_dc = (uint32_t)(ceil(fabs(__tmp)));
	#endif

	__builtin_avr_delay_cycles(__ticks_dc);
     912:	87 e2       	ldi	r24, 0x27	; 39
     914:	93 e2       	ldi	r25, 0x23	; 35
     916:	01 97       	sbiw	r24, 0x01	; 1
     918:	f1 f7       	brne	.-4      	; 0x916 <lq_init+0x7a>
     91a:	00 c0       	rjmp	.+0      	; 0x91c <lq_init+0x80>
     91c:	00 00       	nop
	_delay_us(4500); // wait min 4.1ms
	
	// second try
	lq_writeDevice4Bits(&device, 0x03 << 4);
     91e:	60 e3       	ldi	r22, 0x30	; 48
     920:	ce 01       	movw	r24, r28
     922:	08 96       	adiw	r24, 0x08	; 8
     924:	0e 94 c9 03 	call	0x792	; 0x792 <lq_writeDevice4Bits>
     928:	87 e2       	ldi	r24, 0x27	; 39
     92a:	93 e2       	ldi	r25, 0x23	; 35
     92c:	01 97       	sbiw	r24, 0x01	; 1
     92e:	f1 f7       	brne	.-4      	; 0x92c <lq_init+0x90>
     930:	00 c0       	rjmp	.+0      	; 0x932 <lq_init+0x96>
     932:	00 00       	nop
	_delay_us(4500); // wait min 4.1ms
	
	// third go!
	lq_writeDevice4Bits(&device, 0x03 << 4);
     934:	60 e3       	ldi	r22, 0x30	; 48
     936:	ce 01       	movw	r24, r28
     938:	08 96       	adiw	r24, 0x08	; 8
     93a:	0e 94 c9 03 	call	0x792	; 0x792 <lq_writeDevice4Bits>
     93e:	8b e2       	ldi	r24, 0x2B	; 43
     940:	91 e0       	ldi	r25, 0x01	; 1
     942:	01 97       	sbiw	r24, 0x01	; 1
     944:	f1 f7       	brne	.-4      	; 0x942 <lq_init+0xa6>
     946:	00 c0       	rjmp	.+0      	; 0x948 <lq_init+0xac>
     948:	00 00       	nop
	_delay_us(150); // wait min 150 mics
	
	// finally, set to 4-bit interface
	lq_writeDevice4Bits(&device, 0x02 << 4);
     94a:	60 e2       	ldi	r22, 0x20	; 32
     94c:	ce 01       	movw	r24, r28
     94e:	08 96       	adiw	r24, 0x08	; 8
     950:	0e 94 c9 03 	call	0x792	; 0x792 <lq_writeDevice4Bits>

	// set # lines, font size, etc.
	lq_sendCommand(&device, LCD_FUNCTIONSET | device.DisplayFunction);
     954:	6c 85       	ldd	r22, Y+12	; 0x0c
     956:	60 62       	ori	r22, 0x20	; 32
     958:	ce 01       	movw	r24, r28
     95a:	08 96       	adiw	r24, 0x08	; 8
     95c:	0e 94 06 04 	call	0x80c	; 0x80c <lq_sendCommand>
	
	// turn the display on with no cursor or blinking default
	lq_turnOnDisplay(&device);
     960:	ce 01       	movw	r24, r28
     962:	08 96       	adiw	r24, 0x08	; 8
     964:	0e 94 45 04 	call	0x88a	; 0x88a <lq_turnOnDisplay>
	
	// clear it off
	lq_clear(&device);
     968:	ce 01       	movw	r24, r28
     96a:	08 96       	adiw	r24, 0x08	; 8
     96c:	0e 94 27 04 	call	0x84e	; 0x84e <lq_clear>
	
	// set the entry mode
	lq_sendCommand(&device, LCD_ENTRYMODESET | device.DisplayMode);
     970:	6e 85       	ldd	r22, Y+14	; 0x0e
     972:	64 60       	ori	r22, 0x04	; 4
     974:	ce 01       	movw	r24, r28
     976:	08 96       	adiw	r24, 0x08	; 8
     978:	0e 94 06 04 	call	0x80c	; 0x80c <lq_sendCommand>
	
	lq_returnHome(&device);
     97c:	ce 01       	movw	r24, r28
     97e:	08 96       	adiw	r24, 0x08	; 8
     980:	0e 94 3b 04 	call	0x876	; 0x876 <lq_returnHome>

	return device;
     984:	87 e0       	ldi	r24, 0x07	; 7
     986:	fe 01       	movw	r30, r28
     988:	38 96       	adiw	r30, 0x08	; 8
     98a:	de 01       	movw	r26, r28
     98c:	11 96       	adiw	r26, 0x01	; 1
     98e:	01 90       	ld	r0, Z+
     990:	0d 92       	st	X+, r0
     992:	8a 95       	dec	r24
     994:	e1 f7       	brne	.-8      	; 0x98e <lq_init+0xf2>
     996:	29 81       	ldd	r18, Y+1	; 0x01
     998:	3a 81       	ldd	r19, Y+2	; 0x02
     99a:	4b 81       	ldd	r20, Y+3	; 0x03
     99c:	5c 81       	ldd	r21, Y+4	; 0x04
     99e:	6d 81       	ldd	r22, Y+5	; 0x05
     9a0:	7e 81       	ldd	r23, Y+6	; 0x06
};
     9a2:	8f 81       	ldd	r24, Y+7	; 0x07
     9a4:	90 e0       	ldi	r25, 0x00	; 0
     9a6:	2e 96       	adiw	r28, 0x0e	; 14
     9a8:	0f b6       	in	r0, 0x3f	; 63
     9aa:	f8 94       	cli
     9ac:	de bf       	out	0x3e, r29	; 62
     9ae:	0f be       	out	0x3f, r0	; 63
     9b0:	cd bf       	out	0x3d, r28	; 61
     9b2:	df 91       	pop	r29
     9b4:	cf 91       	pop	r28
     9b6:	08 95       	ret

000009b8 <serial_init>:

#include "Serial_lib.h"

void serial_init()
{
	UCSRB = (1 << RXEN) | (1 << TXEN);
     9b8:	88 e1       	ldi	r24, 0x18	; 24
     9ba:	8a b9       	out	0x0a, r24	; 10
	UCSRC |= (1 << URSEL) | (1 << UCSZ0) | (1 << UCSZ1);
     9bc:	80 b5       	in	r24, 0x20	; 32
     9be:	86 68       	ori	r24, 0x86	; 134
     9c0:	80 bd       	out	0x20, r24	; 32
	UBRRL = (int)((F_CPU / (SERIAL_BAUD_RATE * 16)) - 1);
     9c2:	83 e3       	ldi	r24, 0x33	; 51
     9c4:	89 b9       	out	0x09, r24	; 9
	
#if SERIAL_INTERRUPT == 1
	UCSRB |= (1<<RXCIE);
     9c6:	57 9a       	sbi	0x0a, 7	; 10
     9c8:	08 95       	ret

000009ca <serial_send_char>:
#endif
}

void serial_send_char(char c)
{
	UCSRA = 1 << TXC; // clear TXC bit
     9ca:	90 e4       	ldi	r25, 0x40	; 64
     9cc:	9b b9       	out	0x0b, r25	; 11
	UDR = c;
     9ce:	8c b9       	out	0x0c, r24	; 12
	while ((UCSRA & (1 << TXC)) == 0);
     9d0:	5e 9b       	sbis	0x0b, 6	; 11
     9d2:	fe cf       	rjmp	.-4      	; 0x9d0 <serial_send_char+0x6>
}
     9d4:	08 95       	ret

000009d6 <serial_send_string>:

void serial_send_string(char *s)
{
     9d6:	cf 93       	push	r28
     9d8:	df 93       	push	r29
     9da:	ec 01       	movw	r28, r24
	while (*s != '\0')
     9dc:	88 81       	ld	r24, Y
     9de:	88 23       	and	r24, r24
     9e0:	31 f0       	breq	.+12     	; 0x9ee <serial_send_string+0x18>
     9e2:	21 96       	adiw	r28, 0x01	; 1
	{
		serial_send_char(*s);
     9e4:	0e 94 e5 04 	call	0x9ca	; 0x9ca <serial_send_char>
	while ((UCSRA & (1 << TXC)) == 0);
}

void serial_send_string(char *s)
{
	while (*s != '\0')
     9e8:	89 91       	ld	r24, Y+
     9ea:	81 11       	cpse	r24, r1
     9ec:	fb cf       	rjmp	.-10     	; 0x9e4 <serial_send_string+0xe>
	{
		serial_send_char(*s);
		s++;
	}
}
     9ee:	df 91       	pop	r29
     9f0:	cf 91       	pop	r28
     9f2:	08 95       	ret

000009f4 <TWI_Status>:
}

//Get TWI status. 
uint8_t TWI_Status(void)
{
	return (TWSR & 0xF8);
     9f4:	81 b1       	in	r24, 0x01	; 1
}
     9f6:	88 7f       	andi	r24, 0xF8	; 248
     9f8:	08 95       	ret

000009fa <TWI_BeginTransmission>:

//Begin TWI transmission. 
uint8_t TWI_BeginTransmission(void)
{
	//Transmit START condition
	TWCR = (1<<TWINT) | (1<<TWSTA) | (1<<TWEN);
     9fa:	84 ea       	ldi	r24, 0xA4	; 164
     9fc:	86 bf       	out	0x36, r24	; 54

	//Wait for TWINT Flag set. This indicates that
	//the START condition has been transmitted.
	while (!BitCheck(TWCR, TWINT));
     9fe:	06 b6       	in	r0, 0x36	; 54
     a00:	07 fe       	sbrs	r0, 7
     a02:	fd cf       	rjmp	.-6      	; 0x9fe <TWI_BeginTransmission+0x4>
}

//Get TWI status. 
uint8_t TWI_Status(void)
{
	return (TWSR & 0xF8);
     a04:	81 b1       	in	r24, 0x01	; 1
	//the START condition has been transmitted.
	while (!BitCheck(TWCR, TWINT));

	//Return status register
	return (TWI_Status());
}
     a06:	88 7f       	andi	r24, 0xF8	; 248
     a08:	08 95       	ret

00000a0a <TWI_EndTransmission>:

//End TWI transmission. 
void TWI_EndTransmission(void)
{
	//Transmit STOP condition
	TWCR = (1<<TWEN) | (1<<TWIE) | (1<<TWEA) | (1<<TWINT) | (1<<TWSTO);
     a0a:	85 ed       	ldi	r24, 0xD5	; 213
     a0c:	86 bf       	out	0x36, r24	; 54

	//Wait for stop condition to be executed on bus
	//TWINT is not set after a stop condition!
	while(BitCheck(TWCR, TWSTO));
     a0e:	06 b6       	in	r0, 0x36	; 54
     a10:	04 fc       	sbrc	r0, 4
     a12:	fd cf       	rjmp	.-6      	; 0xa0e <TWI_EndTransmission+0x4>
}
     a14:	08 95       	ret

00000a16 <TWI_Transmit>:

//Transmit data. 
uint8_t TWI_Transmit(uint8_t Data)
{
	//Data to be transmitted
	TWDR = Data;
     a16:	83 b9       	out	0x03, r24	; 3

	//Start transmission
	TWCR = (1<<TWINT) | (1<<TWEN);
     a18:	84 e8       	ldi	r24, 0x84	; 132
     a1a:	86 bf       	out	0x36, r24	; 54

	//Wait data to be shifted
	while (!BitCheck(TWCR, TWINT));
     a1c:	06 b6       	in	r0, 0x36	; 54
     a1e:	07 fe       	sbrs	r0, 7
     a20:	fd cf       	rjmp	.-6      	; 0xa1c <TWI_Transmit+0x6>
}

//Get TWI status. 
uint8_t TWI_Status(void)
{
	return (TWSR & 0xF8);
     a22:	81 b1       	in	r24, 0x01	; 1
	//Wait data to be shifted
	while (!BitCheck(TWCR, TWINT));

	//Return status register
	return (TWI_Status());
}
     a24:	88 7f       	andi	r24, 0xF8	; 248
     a26:	08 95       	ret

00000a28 <TWI_ReceiveACK>:

//Wait until ACK received. 
uint8_t TWI_ReceiveACK(void)
{
	TWCR = (1<<TWINT) | (1<<TWEA) | (1<<TWEN);
     a28:	84 ec       	ldi	r24, 0xC4	; 196
     a2a:	86 bf       	out	0x36, r24	; 54
	
	//Wait till reception is
	while (!BitCheck(TWCR, TWINT));
     a2c:	06 b6       	in	r0, 0x36	; 54
     a2e:	07 fe       	sbrs	r0, 7
     a30:	fd cf       	rjmp	.-6      	; 0xa2c <TWI_ReceiveACK+0x4>

	//Return received data
	return TWDR;
     a32:	83 b1       	in	r24, 0x03	; 3
}
     a34:	08 95       	ret

00000a36 <TWI_ReceiveNACK>:

//Wait until NACK received. 
uint8_t TWI_ReceiveNACK(void)
{
	TWCR = (1<<TWINT) | (1<<TWEN);
     a36:	84 e8       	ldi	r24, 0x84	; 132
     a38:	86 bf       	out	0x36, r24	; 54

	//Wait till reception is
	while (!BitCheck(TWCR, TWINT));
     a3a:	06 b6       	in	r0, 0x36	; 54
     a3c:	07 fe       	sbrs	r0, 7
     a3e:	fd cf       	rjmp	.-6      	; 0xa3a <TWI_ReceiveNACK+0x4>

	//Return received data
	return TWDR;
     a40:	83 b1       	in	r24, 0x03	; 3
}
     a42:	08 95       	ret

00000a44 <int1_init>:
DateTime_t t;

void int1_init(void)
{
	// alarm -> pull up
	SBIT(ALARM_PORT, ALARM_PIN);
     a44:	93 9a       	sbi	0x12, 3	; 18
	// INT1 -> falling edge
	MCUCR |= (1 << ISC11);
     a46:	85 b7       	in	r24, 0x35	; 53
     a48:	88 60       	ori	r24, 0x08	; 8
     a4a:	85 bf       	out	0x35, r24	; 53
	MCUCR &= ~(1 << ISC10);
     a4c:	85 b7       	in	r24, 0x35	; 53
     a4e:	8b 7f       	andi	r24, 0xFB	; 251
     a50:	85 bf       	out	0x35, r24	; 53
	// INT1 -> interrupt enable
	GICR |= (1 << INT1);
     a52:	8b b7       	in	r24, 0x3b	; 59
     a54:	80 68       	ori	r24, 0x80	; 128
     a56:	8b bf       	out	0x3b, r24	; 59
     a58:	08 95       	ret

00000a5a <int2_init>:
}

void int2_init(void)
{
	// button -> pull up
	SBIT(BUTTON_PORT, BUTTON_PIN);
     a5a:	c2 9a       	sbi	0x18, 2	; 24
	// INT2 -> falling edge
	MCUCSR &= ~(1 << ISC2);
     a5c:	84 b7       	in	r24, 0x34	; 52
     a5e:	8f 7b       	andi	r24, 0xBF	; 191
     a60:	84 bf       	out	0x34, r24	; 52
	// INT2 -> interrupt enable
	GICR |= (1 << INT2);
     a62:	8b b7       	in	r24, 0x3b	; 59
     a64:	80 62       	ori	r24, 0x20	; 32
     a66:	8b bf       	out	0x3b, r24	; 59
     a68:	08 95       	ret

00000a6a <timer0_init>:
}

void timer0_init(void)
{
	// timer 0 -> interrupt enable
	TIMSK |= (1 << TOIE0);
     a6a:	89 b7       	in	r24, 0x39	; 57
     a6c:	81 60       	ori	r24, 0x01	; 1
     a6e:	89 bf       	out	0x39, r24	; 57
	// prescaler -> 1024
	TCCR0 = (1 << CS02) | (1 << CS00);
     a70:	85 e0       	ldi	r24, 0x05	; 5
     a72:	83 bf       	out	0x33, r24	; 51
	// 255 - 78 = 177 -> 10 ms
	TCNT0 = 177;
     a74:	81 eb       	ldi	r24, 0xB1	; 177
     a76:	82 bf       	out	0x32, r24	; 50
     a78:	08 95       	ret

00000a7a <timer1_init>:
}

void timer1_init(void)
{
	// timer 1 -> interrupt enable
	TIMSK |= (1 << TOIE1);
     a7a:	89 b7       	in	r24, 0x39	; 57
     a7c:	84 60       	ori	r24, 0x04	; 4
     a7e:	89 bf       	out	0x39, r24	; 57
	// prescaler -> 1024
	TCCR1B = (1 << CS12) | (1 << CS10);
     a80:	85 e0       	ldi	r24, 0x05	; 5
     a82:	8e bd       	out	0x2e, r24	; 46
	// 65535 - 7812 = 57723 -> 1 sec
	TCNT1 = 57723;
     a84:	8b e7       	ldi	r24, 0x7B	; 123
     a86:	91 ee       	ldi	r25, 0xE1	; 225
     a88:	9d bd       	out	0x2d, r25	; 45
     a8a:	8c bd       	out	0x2c, r24	; 44
     a8c:	08 95       	ret

00000a8e <stepper_init>:
}

void stepper_init(void)
{
	// stepper -> output
	SBIT(STEPPER_DDR, 3);
     a8e:	a3 9a       	sbi	0x14, 3	; 20
	SBIT(STEPPER_DDR, 4);
     a90:	a4 9a       	sbi	0x14, 4	; 20
	SBIT(STEPPER_DDR, 5);
     a92:	a5 9a       	sbi	0x14, 5	; 20
	SBIT(STEPPER_DDR, 6);
     a94:	a6 9a       	sbi	0x14, 6	; 20
     a96:	08 95       	ret

00000a98 <adc_init>:
}

void adc_init(void)
{
	// ADC -> input
	CBIT(ADC_DDR, ADC_PIN);
     a98:	d0 98       	cbi	0x1a, 0	; 26
	// ADC -> 2.56V reference voltage
	ADMUX |= (1 << REFS1) | (1 << REFS0);
     a9a:	87 b1       	in	r24, 0x07	; 7
     a9c:	80 6c       	ori	r24, 0xC0	; 192
     a9e:	87 b9       	out	0x07, r24	; 7
	// ADC -> ADC enable / interrupt enable / prescaler -> 128
	ADCSRA |= (1 << ADEN) | (1 << ADIE) | (1 << ADPS2) | (1 << ADPS1) | (1 << ADPS0);
     aa0:	86 b1       	in	r24, 0x06	; 6
     aa2:	8f 68       	ori	r24, 0x8F	; 143
     aa4:	86 b9       	out	0x06, r24	; 6
     aa6:	08 95       	ret

00000aa8 <rtc_init>:
}

void rtc_init(void)
{
	// I2C -> init (400 kHz)
	i2c_master_init(I2C_SCL_FREQUENCY_400);
     aa8:	60 e8       	ldi	r22, 0x80	; 128
     aaa:	7a e1       	ldi	r23, 0x1A	; 26
     aac:	86 e0       	ldi	r24, 0x06	; 6
     aae:	90 e0       	ldi	r25, 0x00	; 0
     ab0:	0e 94 55 03 	call	0x6aa	; 0x6aa <i2c_master_init>

	// date time -> init (18:59:55 2023/12/31)
	t.Second = 55;
     ab4:	e4 e8       	ldi	r30, 0x84	; 132
     ab6:	f1 e0       	ldi	r31, 0x01	; 1
     ab8:	87 e3       	ldi	r24, 0x37	; 55
     aba:	28 2f       	mov	r18, r24
     abc:	80 83       	st	Z, r24
	t.Minute = 59;
     abe:	8b e3       	ldi	r24, 0x3B	; 59
     ac0:	38 2f       	mov	r19, r24
     ac2:	81 83       	std	Z+1, r24	; 0x01
	t.Hour = 18;
     ac4:	82 e1       	ldi	r24, 0x12	; 18
     ac6:	48 2f       	mov	r20, r24
     ac8:	82 83       	std	Z+2, r24	; 0x02
	t.Day = Sunday;
     aca:	82 e0       	ldi	r24, 0x02	; 2
     acc:	58 2f       	mov	r21, r24
     ace:	83 83       	std	Z+3, r24	; 0x03
	t.Date = 31;
     ad0:	8f e1       	ldi	r24, 0x1F	; 31
     ad2:	68 2f       	mov	r22, r24
     ad4:	84 83       	std	Z+4, r24	; 0x04
	t.Month = 12;
     ad6:	8c e0       	ldi	r24, 0x0C	; 12
     ad8:	78 2f       	mov	r23, r24
     ada:	85 83       	std	Z+5, r24	; 0x05
	t.Year = 2023;
     adc:	87 ee       	ldi	r24, 0xE7	; 231
     ade:	86 83       	std	Z+6, r24	; 0x06
     ae0:	97 e0       	ldi	r25, 0x07	; 7
     ae2:	97 83       	std	Z+7, r25	; 0x07
	RTC_Set(t);
     ae4:	90 91 8b 01 	lds	r25, 0x018B	; 0x80018b <t+0x7>
     ae8:	0e 94 74 01 	call	0x2e8	; 0x2e8 <RTC_Set>
     aec:	08 95       	ret

00000aee <lcd_init>:
}

void lcd_init(void)
{
     aee:	ef 92       	push	r14
     af0:	ff 92       	push	r15
     af2:	0f 93       	push	r16
     af4:	1f 93       	push	r17
     af6:	cf 93       	push	r28
     af8:	df 93       	push	r29
     afa:	cd b7       	in	r28, 0x3d	; 61
     afc:	de b7       	in	r29, 0x3e	; 62
     afe:	64 97       	sbiw	r28, 0x14	; 20
     b00:	0f b6       	in	r0, 0x3f	; 63
     b02:	f8 94       	cli
     b04:	de bf       	out	0x3e, r29	; 62
     b06:	0f be       	out	0x3f, r0	; 63
     b08:	cd bf       	out	0x3d, r28	; 61
	// LCD -> init (A0 -> H, A1 -> H, A2 -> L)
	lcd = lq_init((0b01000110 >> 1), 16, 2, LCD_5x8DOTS);
     b0a:	20 e0       	ldi	r18, 0x00	; 0
     b0c:	42 e0       	ldi	r20, 0x02	; 2
     b0e:	60 e1       	ldi	r22, 0x10	; 16
     b10:	83 e2       	ldi	r24, 0x23	; 35
     b12:	0e 94 4e 04 	call	0x89c	; 0x89c <lq_init>
     b16:	20 93 8c 01 	sts	0x018C, r18	; 0x80018c <lcd>
     b1a:	30 93 8d 01 	sts	0x018D, r19	; 0x80018d <lcd+0x1>
     b1e:	40 93 8e 01 	sts	0x018E, r20	; 0x80018e <lcd+0x2>
     b22:	50 93 8f 01 	sts	0x018F, r21	; 0x80018f <lcd+0x3>
     b26:	60 93 90 01 	sts	0x0190, r22	; 0x800190 <lcd+0x4>
     b2a:	70 93 91 01 	sts	0x0191, r23	; 0x800191 <lcd+0x5>
     b2e:	80 93 92 01 	sts	0x0192, r24	; 0x800192 <lcd+0x6>

	t = RTC_Get();
     b32:	0e 94 c8 01 	call	0x390	; 0x390 <RTC_Get>
     b36:	e4 e8       	ldi	r30, 0x84	; 132
     b38:	f1 e0       	ldi	r31, 0x01	; 1
     b3a:	20 83       	st	Z, r18
     b3c:	31 83       	std	Z+1, r19	; 0x01
     b3e:	42 83       	std	Z+2, r20	; 0x02
     b40:	53 83       	std	Z+3, r21	; 0x03
     b42:	64 83       	std	Z+4, r22	; 0x04
     b44:	75 83       	std	Z+5, r23	; 0x05
     b46:	86 83       	std	Z+6, r24	; 0x06
     b48:	97 83       	std	Z+7, r25	; 0x07
	if (RTC_Status() == RTC_OK)
     b4a:	0e 94 59 00 	call	0xb2	; 0xb2 <RTC_Status>
     b4e:	81 30       	cpi	r24, 0x01	; 1
     b50:	09 f0       	breq	.+2      	; 0xb54 <lcd_init+0x66>
     b52:	49 c0       	rjmp	.+146    	; 0xbe6 <lcd_init+0xf8>
	{
		// LCD -> print time
		lq_setCursor(&lcd, 0, 0);
     b54:	40 e0       	ldi	r20, 0x00	; 0
     b56:	60 e0       	ldi	r22, 0x00	; 0
     b58:	8c e8       	ldi	r24, 0x8C	; 140
     b5a:	91 e0       	ldi	r25, 0x01	; 1
     b5c:	0e 94 0a 04 	call	0x814	; 0x814 <lq_setCursor>
		char time_arr[10];
		sprintf(time_arr, "%02d:%02d:%02d", t.Hour, t.Minute, t.Second);
     b60:	04 e8       	ldi	r16, 0x84	; 132
     b62:	11 e0       	ldi	r17, 0x01	; 1
     b64:	f8 01       	movw	r30, r16
     b66:	80 81       	ld	r24, Z
     b68:	1f 92       	push	r1
     b6a:	8f 93       	push	r24
     b6c:	81 81       	ldd	r24, Z+1	; 0x01
     b6e:	1f 92       	push	r1
     b70:	8f 93       	push	r24
     b72:	82 81       	ldd	r24, Z+2	; 0x02
     b74:	1f 92       	push	r1
     b76:	8f 93       	push	r24
     b78:	8d e6       	ldi	r24, 0x6D	; 109
     b7a:	90 e0       	ldi	r25, 0x00	; 0
     b7c:	9f 93       	push	r25
     b7e:	8f 93       	push	r24
     b80:	7e 01       	movw	r14, r28
     b82:	fb e0       	ldi	r31, 0x0B	; 11
     b84:	ef 0e       	add	r14, r31
     b86:	f1 1c       	adc	r15, r1
     b88:	ff 92       	push	r15
     b8a:	ef 92       	push	r14
     b8c:	0e 94 ce 0b 	call	0x179c	; 0x179c <sprintf>
		lq_print(&lcd, time_arr);
     b90:	b7 01       	movw	r22, r14
     b92:	8c e8       	ldi	r24, 0x8C	; 140
     b94:	91 e0       	ldi	r25, 0x01	; 1
     b96:	0e 94 f0 03 	call	0x7e0	; 0x7e0 <lq_print>

		// LCD -> print date
		lq_setCursor(&lcd, 1, 0);
     b9a:	40 e0       	ldi	r20, 0x00	; 0
     b9c:	61 e0       	ldi	r22, 0x01	; 1
     b9e:	8c e8       	ldi	r24, 0x8C	; 140
     ba0:	91 e0       	ldi	r25, 0x01	; 1
     ba2:	0e 94 0a 04 	call	0x814	; 0x814 <lq_setCursor>
		char date_arr[10];
		sprintf(date_arr, "%02d/%02d/%02d", t.Year, t.Month, t.Date);
     ba6:	f8 01       	movw	r30, r16
     ba8:	84 81       	ldd	r24, Z+4	; 0x04
     baa:	1f 92       	push	r1
     bac:	8f 93       	push	r24
     bae:	85 81       	ldd	r24, Z+5	; 0x05
     bb0:	1f 92       	push	r1
     bb2:	8f 93       	push	r24
     bb4:	87 81       	ldd	r24, Z+7	; 0x07
     bb6:	8f 93       	push	r24
     bb8:	86 81       	ldd	r24, Z+6	; 0x06
     bba:	8f 93       	push	r24
     bbc:	8c e7       	ldi	r24, 0x7C	; 124
     bbe:	90 e0       	ldi	r25, 0x00	; 0
     bc0:	9f 93       	push	r25
     bc2:	8f 93       	push	r24
     bc4:	8e 01       	movw	r16, r28
     bc6:	0f 5f       	subi	r16, 0xFF	; 255
     bc8:	1f 4f       	sbci	r17, 0xFF	; 255
     bca:	1f 93       	push	r17
     bcc:	0f 93       	push	r16
     bce:	0e 94 ce 0b 	call	0x179c	; 0x179c <sprintf>
		lq_print(&lcd, date_arr);
     bd2:	b8 01       	movw	r22, r16
     bd4:	8c e8       	ldi	r24, 0x8C	; 140
     bd6:	91 e0       	ldi	r25, 0x01	; 1
     bd8:	0e 94 f0 03 	call	0x7e0	; 0x7e0 <lq_print>
     bdc:	0f b6       	in	r0, 0x3f	; 63
     bde:	f8 94       	cli
     be0:	de bf       	out	0x3e, r29	; 62
     be2:	0f be       	out	0x3f, r0	; 63
     be4:	cd bf       	out	0x3d, r28	; 61
	}
}
     be6:	64 96       	adiw	r28, 0x14	; 20
     be8:	0f b6       	in	r0, 0x3f	; 63
     bea:	f8 94       	cli
     bec:	de bf       	out	0x3e, r29	; 62
     bee:	0f be       	out	0x3f, r0	; 63
     bf0:	cd bf       	out	0x3d, r28	; 61
     bf2:	df 91       	pop	r29
     bf4:	cf 91       	pop	r28
     bf6:	1f 91       	pop	r17
     bf8:	0f 91       	pop	r16
     bfa:	ff 90       	pop	r15
     bfc:	ef 90       	pop	r14
     bfe:	08 95       	ret

00000c00 <alarm_init>:

void alarm_init(void)
{
     c00:	0f 93       	push	r16
	// buzzer -> output
	SBIT(BUZZER_DDR, BUZZER_PIN);
     c02:	8f 9a       	sbi	0x11, 7	; 17
	// alarm -> 19:00:00
	RTC_AlarmSet(Alarm1_Match_Hours, 0, 19, 0, 0);
     c04:	00 e0       	ldi	r16, 0x00	; 0
     c06:	20 e0       	ldi	r18, 0x00	; 0
     c08:	43 e1       	ldi	r20, 0x13	; 19
     c0a:	60 e0       	ldi	r22, 0x00	; 0
     c0c:	88 e0       	ldi	r24, 0x08	; 8
     c0e:	0e 94 29 02 	call	0x452	; 0x452 <RTC_AlarmSet>
	// alarm -> interrupt enable
	RTC_AlarmInterrupt(Alarm_1, 1);
     c12:	61 e0       	ldi	r22, 0x01	; 1
     c14:	80 e0       	ldi	r24, 0x00	; 0
     c16:	0e 94 6e 02 	call	0x4dc	; 0x4dc <RTC_AlarmInterrupt>
}
     c1a:	0f 91       	pop	r16
     c1c:	08 95       	ret

00000c1e <init>:

void init(void)
{
	int1_init();
     c1e:	0e 94 22 05 	call	0xa44	; 0xa44 <int1_init>
	int2_init();
     c22:	0e 94 2d 05 	call	0xa5a	; 0xa5a <int2_init>
	timer0_init();
     c26:	0e 94 35 05 	call	0xa6a	; 0xa6a <timer0_init>
	timer1_init();
     c2a:	0e 94 3d 05 	call	0xa7a	; 0xa7a <timer1_init>
	stepper_init();
     c2e:	0e 94 47 05 	call	0xa8e	; 0xa8e <stepper_init>
	adc_init();
     c32:	0e 94 4c 05 	call	0xa98	; 0xa98 <adc_init>
	rtc_init();
     c36:	0e 94 54 05 	call	0xaa8	; 0xaa8 <rtc_init>
	lcd_init();
     c3a:	0e 94 77 05 	call	0xaee	; 0xaee <lcd_init>
	alarm_init();
     c3e:	0e 94 00 06 	call	0xc00	; 0xc00 <alarm_init>
	serial_init();
     c42:	0e 94 dc 04 	call	0x9b8	; 0x9b8 <serial_init>
	ultrasonic_init();
     c46:	0e 94 93 02 	call	0x526	; 0x526 <ultrasonic_init>
     c4a:	08 95       	ret

00000c4c <split_string_by_space>:
}

void split_string_by_space(void)
{
     c4c:	8f 92       	push	r8
     c4e:	9f 92       	push	r9
     c50:	af 92       	push	r10
     c52:	bf 92       	push	r11
     c54:	cf 92       	push	r12
     c56:	df 92       	push	r13
     c58:	ef 92       	push	r14
     c5a:	ff 92       	push	r15
     c5c:	0f 93       	push	r16
     c5e:	1f 93       	push	r17
     c60:	cf 93       	push	r28
     c62:	df 93       	push	r29
     c64:	cd b7       	in	r28, 0x3d	; 61
     c66:	de b7       	in	r29, 0x3e	; 62
     c68:	c0 55       	subi	r28, 0x50	; 80
     c6a:	d1 09       	sbc	r29, r1
     c6c:	0f b6       	in	r0, 0x3f	; 63
     c6e:	f8 94       	cli
     c70:	de bf       	out	0x3e, r29	; 62
     c72:	0f be       	out	0x3f, r0	; 63
     c74:	cd bf       	out	0x3d, r28	; 61
	char first_word[20], second_word[20], third_word[20], fourth_word[20];

	// clear all arrays
	strcpy(first_word, "");
     c76:	19 82       	std	Y+1, r1	; 0x01
	strcpy(second_word, "");
     c78:	1d 8a       	std	Y+21, r1	; 0x15
	strcpy(third_word, "");
     c7a:	19 a6       	std	Y+41, r1	; 0x29
	strcpy(fourth_word, "");
     c7c:	1d ae       	std	Y+61, r1	; 0x3d
	strcpy(cmd_key, "");
     c7e:	0f 2e       	mov	r0, r31
     c80:	f4 e1       	ldi	r31, 0x14	; 20
     c82:	af 2e       	mov	r10, r31
     c84:	f2 e0       	ldi	r31, 0x02	; 2
     c86:	bf 2e       	mov	r11, r31
     c88:	f0 2d       	mov	r31, r0
     c8a:	f5 01       	movw	r30, r10
     c8c:	10 82       	st	Z, r1
	strcpy(cmd_first_value, "");
     c8e:	10 92 28 02 	sts	0x0228, r1	; 0x800228 <cmd_first_value>
	strcpy(cmd_second_value, "");
     c92:	10 92 fc 01 	sts	0x01FC, r1	; 0x8001fc <cmd_second_value>

	// store each word of command in its variable
	sscanf(command, "%s %s %s %s", first_word, second_word, third_word, fourth_word);
     c96:	7e 01       	movw	r14, r28
     c98:	fd e3       	ldi	r31, 0x3D	; 61
     c9a:	ef 0e       	add	r14, r31
     c9c:	f1 1c       	adc	r15, r1
     c9e:	ff 92       	push	r15
     ca0:	ef 92       	push	r14
     ca2:	6e 01       	movw	r12, r28
     ca4:	89 e2       	ldi	r24, 0x29	; 41
     ca6:	c8 0e       	add	r12, r24
     ca8:	d1 1c       	adc	r13, r1
     caa:	df 92       	push	r13
     cac:	cf 92       	push	r12
     cae:	8e 01       	movw	r16, r28
     cb0:	0b 5e       	subi	r16, 0xEB	; 235
     cb2:	1f 4f       	sbci	r17, 0xFF	; 255
     cb4:	1f 93       	push	r17
     cb6:	0f 93       	push	r16
     cb8:	fe 01       	movw	r30, r28
     cba:	31 96       	adiw	r30, 0x01	; 1
     cbc:	4f 01       	movw	r8, r30
     cbe:	ff 93       	push	r31
     cc0:	ef 93       	push	r30
     cc2:	8b e8       	ldi	r24, 0x8B	; 139
     cc4:	90 e0       	ldi	r25, 0x00	; 0
     cc6:	9f 93       	push	r25
     cc8:	8f 93       	push	r24
     cca:	84 e9       	ldi	r24, 0x94	; 148
     ccc:	91 e0       	ldi	r25, 0x01	; 1
     cce:	9f 93       	push	r25
     cd0:	8f 93       	push	r24
     cd2:	0e 94 f0 0b 	call	0x17e0	; 0x17e0 <sscanf>

	// combine first two words of command and store as key
	sprintf(cmd_key, "%s %s", first_word, second_word);
     cd6:	1f 93       	push	r17
     cd8:	0f 93       	push	r16
     cda:	9f 92       	push	r9
     cdc:	8f 92       	push	r8
     cde:	81 e9       	ldi	r24, 0x91	; 145
     ce0:	90 e0       	ldi	r25, 0x00	; 0
     ce2:	9f 93       	push	r25
     ce4:	8f 93       	push	r24
     ce6:	bf 92       	push	r11
     ce8:	af 92       	push	r10
     cea:	0e 94 ce 0b 	call	0x179c	; 0x179c <sprintf>
	// store third word of command as first value
	sprintf(cmd_first_value, "%s", third_word);
     cee:	b6 01       	movw	r22, r12
     cf0:	88 e2       	ldi	r24, 0x28	; 40
     cf2:	92 e0       	ldi	r25, 0x02	; 2
     cf4:	0e 94 c7 0b 	call	0x178e	; 0x178e <strcpy>
	// store fourth word of command as second value
	sprintf(cmd_second_value, "%s", fourth_word);
     cf8:	b7 01       	movw	r22, r14
     cfa:	8c ef       	ldi	r24, 0xFC	; 252
     cfc:	91 e0       	ldi	r25, 0x01	; 1
     cfe:	0e 94 c7 0b 	call	0x178e	; 0x178e <strcpy>
}
     d02:	0f b6       	in	r0, 0x3f	; 63
     d04:	f8 94       	cli
     d06:	de bf       	out	0x3e, r29	; 62
     d08:	0f be       	out	0x3f, r0	; 63
     d0a:	cd bf       	out	0x3d, r28	; 61
     d0c:	c0 5b       	subi	r28, 0xB0	; 176
     d0e:	df 4f       	sbci	r29, 0xFF	; 255
     d10:	0f b6       	in	r0, 0x3f	; 63
     d12:	f8 94       	cli
     d14:	de bf       	out	0x3e, r29	; 62
     d16:	0f be       	out	0x3f, r0	; 63
     d18:	cd bf       	out	0x3d, r28	; 61
     d1a:	df 91       	pop	r29
     d1c:	cf 91       	pop	r28
     d1e:	1f 91       	pop	r17
     d20:	0f 91       	pop	r16
     d22:	ff 90       	pop	r15
     d24:	ef 90       	pop	r14
     d26:	df 90       	pop	r13
     d28:	cf 90       	pop	r12
     d2a:	bf 90       	pop	r11
     d2c:	af 90       	pop	r10
     d2e:	9f 90       	pop	r9
     d30:	8f 90       	pop	r8
     d32:	08 95       	ret

00000d34 <rotate_stepper>:

void rotate_stepper(int steps, int direction)
{
     d34:	ef 92       	push	r14
     d36:	ff 92       	push	r15
     d38:	0f 93       	push	r16
     d3a:	1f 93       	push	r17
     d3c:	cf 93       	push	r28
     d3e:	df 93       	push	r29
     d40:	cd b7       	in	r28, 0x3d	; 61
     d42:	de b7       	in	r29, 0x3e	; 62
     d44:	28 97       	sbiw	r28, 0x08	; 8
     d46:	0f b6       	in	r0, 0x3f	; 63
     d48:	f8 94       	cli
     d4a:	de bf       	out	0x3e, r29	; 62
     d4c:	0f be       	out	0x3f, r0	; 63
     d4e:	cd bf       	out	0x3d, r28	; 61
     d50:	8c 01       	movw	r16, r24
	// steps -> shifed 3 units to the left
	int step_sequence[4] = {0x20, 0x10, 0x40, 0x08};
     d52:	88 e0       	ldi	r24, 0x08	; 8
     d54:	e5 e6       	ldi	r30, 0x65	; 101
     d56:	f0 e0       	ldi	r31, 0x00	; 0
     d58:	de 01       	movw	r26, r28
     d5a:	11 96       	adiw	r26, 0x01	; 1
     d5c:	01 90       	ld	r0, Z+
     d5e:	0d 92       	st	X+, r0
     d60:	8a 95       	dec	r24
     d62:	e1 f7       	brne	.-8      	; 0xd5c <rotate_stepper+0x28>
	for (int i = 0; i < steps; i++)
     d64:	10 16       	cp	r1, r16
     d66:	11 06       	cpc	r1, r17
     d68:	cc f5       	brge	.+114    	; 0xddc <rotate_stepper+0xa8>
     d6a:	20 e0       	ldi	r18, 0x00	; 0
     d6c:	30 e0       	ldi	r19, 0x00	; 0
     d6e:	ae 01       	movw	r20, r28
     d70:	4f 5f       	subi	r20, 0xFF	; 255
     d72:	5f 4f       	sbci	r21, 0xFF	; 255
     d74:	7e 01       	movw	r14, r28
     d76:	89 e0       	ldi	r24, 0x09	; 9
     d78:	e8 0e       	add	r14, r24
     d7a:	f1 1c       	adc	r15, r1
	{
		// stepper motor -> clockwise rotation
		if (direction == CW)
     d7c:	61 30       	cpi	r22, 0x01	; 1
     d7e:	71 05       	cpc	r23, r1
     d80:	39 f5       	brne	.+78     	; 0xdd0 <rotate_stepper+0x9c>
     d82:	fe 01       	movw	r30, r28
     d84:	31 96       	adiw	r30, 0x01	; 1
		{
			for (int step = 0; step < 4; step++)
			{
				STEPPER_PORT = step_sequence[step];
     d86:	90 81       	ld	r25, Z
     d88:	32 96       	adiw	r30, 0x02	; 2
     d8a:	95 bb       	out	0x15, r25	; 21
	#else
		//round up by default
		__ticks_dc = (uint32_t)(ceil(fabs(__tmp)));
	#endif

	__builtin_avr_delay_cycles(__ticks_dc);
     d8c:	9f e7       	ldi	r25, 0x7F	; 127
     d8e:	a8 e3       	ldi	r26, 0x38	; 56
     d90:	81 e0       	ldi	r24, 0x01	; 1
     d92:	91 50       	subi	r25, 0x01	; 1
     d94:	a0 40       	sbci	r26, 0x00	; 0
     d96:	80 40       	sbci	r24, 0x00	; 0
     d98:	e1 f7       	brne	.-8      	; 0xd92 <rotate_stepper+0x5e>
     d9a:	00 c0       	rjmp	.+0      	; 0xd9c <rotate_stepper+0x68>
     d9c:	00 00       	nop
	for (int i = 0; i < steps; i++)
	{
		// stepper motor -> clockwise rotation
		if (direction == CW)
		{
			for (int step = 0; step < 4; step++)
     d9e:	ee 15       	cp	r30, r14
     da0:	ff 05       	cpc	r31, r15
     da2:	89 f7       	brne	.-30     	; 0xd86 <rotate_stepper+0x52>
     da4:	0f c0       	rjmp	.+30     	; 0xdc4 <rotate_stepper+0x90>
     da6:	32 97       	sbiw	r30, 0x02	; 2
		// stepper motor -> counter clockwise rotation
		if (direction == CCW)
		{
			for (int step = 3; step >= 0; step--)
			{
				STEPPER_PORT = step_sequence[step];
     da8:	90 81       	ld	r25, Z
     daa:	95 bb       	out	0x15, r25	; 21
     dac:	9f e7       	ldi	r25, 0x7F	; 127
     dae:	a8 e3       	ldi	r26, 0x38	; 56
     db0:	81 e0       	ldi	r24, 0x01	; 1
     db2:	91 50       	subi	r25, 0x01	; 1
     db4:	a0 40       	sbci	r26, 0x00	; 0
     db6:	80 40       	sbci	r24, 0x00	; 0
     db8:	e1 f7       	brne	.-8      	; 0xdb2 <rotate_stepper+0x7e>
     dba:	00 c0       	rjmp	.+0      	; 0xdbc <rotate_stepper+0x88>
     dbc:	00 00       	nop
		}

		// stepper motor -> counter clockwise rotation
		if (direction == CCW)
		{
			for (int step = 3; step >= 0; step--)
     dbe:	4e 17       	cp	r20, r30
     dc0:	5f 07       	cpc	r21, r31
     dc2:	89 f7       	brne	.-30     	; 0xda6 <rotate_stepper+0x72>

void rotate_stepper(int steps, int direction)
{
	// steps -> shifed 3 units to the left
	int step_sequence[4] = {0x20, 0x10, 0x40, 0x08};
	for (int i = 0; i < steps; i++)
     dc4:	2f 5f       	subi	r18, 0xFF	; 255
     dc6:	3f 4f       	sbci	r19, 0xFF	; 255
     dc8:	02 17       	cp	r16, r18
     dca:	13 07       	cpc	r17, r19
     dcc:	b9 f6       	brne	.-82     	; 0xd7c <rotate_stepper+0x48>
     dce:	06 c0       	rjmp	.+12     	; 0xddc <rotate_stepper+0xa8>
				_delay_ms(50);
			}
		}

		// stepper motor -> counter clockwise rotation
		if (direction == CCW)
     dd0:	61 15       	cp	r22, r1
     dd2:	71 05       	cpc	r23, r1
     dd4:	b9 f7       	brne	.-18     	; 0xdc4 <rotate_stepper+0x90>
     dd6:	fe 01       	movw	r30, r28
     dd8:	39 96       	adiw	r30, 0x09	; 9
     dda:	e5 cf       	rjmp	.-54     	; 0xda6 <rotate_stepper+0x72>
				STEPPER_PORT = step_sequence[step];
				_delay_ms(50);
			}
		}
	}
}
     ddc:	28 96       	adiw	r28, 0x08	; 8
     dde:	0f b6       	in	r0, 0x3f	; 63
     de0:	f8 94       	cli
     de2:	de bf       	out	0x3e, r29	; 62
     de4:	0f be       	out	0x3f, r0	; 63
     de6:	cd bf       	out	0x3d, r28	; 61
     de8:	df 91       	pop	r29
     dea:	cf 91       	pop	r28
     dec:	1f 91       	pop	r17
     dee:	0f 91       	pop	r16
     df0:	ff 90       	pop	r15
     df2:	ef 90       	pop	r14
     df4:	08 95       	ret

00000df6 <adc_read>:

void adc_read(void)
{
	// ADC -> start conversion
	ADCSRA |= (1 << ADSC);
     df6:	36 9a       	sbi	0x06, 6	; 6
     df8:	08 95       	ret

00000dfa <lcd_render>:
}

void lcd_render(void)
{
     dfa:	ef 92       	push	r14
     dfc:	ff 92       	push	r15
     dfe:	0f 93       	push	r16
     e00:	1f 93       	push	r17
     e02:	cf 93       	push	r28
     e04:	df 93       	push	r29
     e06:	cd b7       	in	r28, 0x3d	; 61
     e08:	de b7       	in	r29, 0x3e	; 62
     e0a:	ec 97       	sbiw	r28, 0x3c	; 60
     e0c:	0f b6       	in	r0, 0x3f	; 63
     e0e:	f8 94       	cli
     e10:	de bf       	out	0x3e, r29	; 62
     e12:	0f be       	out	0x3f, r0	; 63
     e14:	cd bf       	out	0x3d, r28	; 61
	t = RTC_Get();
     e16:	0e 94 c8 01 	call	0x390	; 0x390 <RTC_Get>
     e1a:	e4 e8       	ldi	r30, 0x84	; 132
     e1c:	f1 e0       	ldi	r31, 0x01	; 1
     e1e:	20 83       	st	Z, r18
     e20:	31 83       	std	Z+1, r19	; 0x01
     e22:	42 83       	std	Z+2, r20	; 0x02
     e24:	53 83       	std	Z+3, r21	; 0x03
     e26:	64 83       	std	Z+4, r22	; 0x04
     e28:	75 83       	std	Z+5, r23	; 0x05
     e2a:	86 83       	std	Z+6, r24	; 0x06
     e2c:	97 83       	std	Z+7, r25	; 0x07
	if (RTC_Status() == RTC_OK)
     e2e:	0e 94 59 00 	call	0xb2	; 0xb2 <RTC_Status>
     e32:	81 30       	cpi	r24, 0x01	; 1
     e34:	09 f0       	breq	.+2      	; 0xe38 <lcd_render+0x3e>
     e36:	49 c0       	rjmp	.+146    	; 0xeca <lcd_render+0xd0>
	{
		// LCD -> print time
		lq_setCursor(&lcd, 0, 0);
     e38:	40 e0       	ldi	r20, 0x00	; 0
     e3a:	60 e0       	ldi	r22, 0x00	; 0
     e3c:	8c e8       	ldi	r24, 0x8C	; 140
     e3e:	91 e0       	ldi	r25, 0x01	; 1
     e40:	0e 94 0a 04 	call	0x814	; 0x814 <lq_setCursor>
		char time_arr[20];
		sprintf(time_arr, "%02d:%02d:%02d", t.Hour, t.Minute, t.Second);
     e44:	04 e8       	ldi	r16, 0x84	; 132
     e46:	11 e0       	ldi	r17, 0x01	; 1
     e48:	f8 01       	movw	r30, r16
     e4a:	80 81       	ld	r24, Z
     e4c:	1f 92       	push	r1
     e4e:	8f 93       	push	r24
     e50:	81 81       	ldd	r24, Z+1	; 0x01
     e52:	1f 92       	push	r1
     e54:	8f 93       	push	r24
     e56:	82 81       	ldd	r24, Z+2	; 0x02
     e58:	1f 92       	push	r1
     e5a:	8f 93       	push	r24
     e5c:	8d e6       	ldi	r24, 0x6D	; 109
     e5e:	90 e0       	ldi	r25, 0x00	; 0
     e60:	9f 93       	push	r25
     e62:	8f 93       	push	r24
     e64:	7e 01       	movw	r14, r28
     e66:	f9 e2       	ldi	r31, 0x29	; 41
     e68:	ef 0e       	add	r14, r31
     e6a:	f1 1c       	adc	r15, r1
     e6c:	ff 92       	push	r15
     e6e:	ef 92       	push	r14
     e70:	0e 94 ce 0b 	call	0x179c	; 0x179c <sprintf>
		lq_print(&lcd, time_arr);
     e74:	b7 01       	movw	r22, r14
     e76:	8c e8       	ldi	r24, 0x8C	; 140
     e78:	91 e0       	ldi	r25, 0x01	; 1
     e7a:	0e 94 f0 03 	call	0x7e0	; 0x7e0 <lq_print>

		// LCD -> print date
		lq_setCursor(&lcd, 1, 0);
     e7e:	40 e0       	ldi	r20, 0x00	; 0
     e80:	61 e0       	ldi	r22, 0x01	; 1
     e82:	8c e8       	ldi	r24, 0x8C	; 140
     e84:	91 e0       	ldi	r25, 0x01	; 1
     e86:	0e 94 0a 04 	call	0x814	; 0x814 <lq_setCursor>
		char date_arr[20];
		sprintf(date_arr, "%02d/%02d/%02d", t.Year, t.Month, t.Date);
     e8a:	f8 01       	movw	r30, r16
     e8c:	84 81       	ldd	r24, Z+4	; 0x04
     e8e:	1f 92       	push	r1
     e90:	8f 93       	push	r24
     e92:	85 81       	ldd	r24, Z+5	; 0x05
     e94:	1f 92       	push	r1
     e96:	8f 93       	push	r24
     e98:	87 81       	ldd	r24, Z+7	; 0x07
     e9a:	8f 93       	push	r24
     e9c:	86 81       	ldd	r24, Z+6	; 0x06
     e9e:	8f 93       	push	r24
     ea0:	8c e7       	ldi	r24, 0x7C	; 124
     ea2:	90 e0       	ldi	r25, 0x00	; 0
     ea4:	9f 93       	push	r25
     ea6:	8f 93       	push	r24
     ea8:	8e 01       	movw	r16, r28
     eaa:	0b 5e       	subi	r16, 0xEB	; 235
     eac:	1f 4f       	sbci	r17, 0xFF	; 255
     eae:	1f 93       	push	r17
     eb0:	0f 93       	push	r16
     eb2:	0e 94 ce 0b 	call	0x179c	; 0x179c <sprintf>
		lq_print(&lcd, date_arr);
     eb6:	b8 01       	movw	r22, r16
     eb8:	8c e8       	ldi	r24, 0x8C	; 140
     eba:	91 e0       	ldi	r25, 0x01	; 1
     ebc:	0e 94 f0 03 	call	0x7e0	; 0x7e0 <lq_print>
     ec0:	0f b6       	in	r0, 0x3f	; 63
     ec2:	f8 94       	cli
     ec4:	de bf       	out	0x3e, r29	; 62
     ec6:	0f be       	out	0x3f, r0	; 63
     ec8:	cd bf       	out	0x3d, r28	; 61
	}

	// LCD -> print temperature
	char temp_arr[10];
	sprintf(temp_arr, "%2d\xDF" "C", temp_integer);
     eca:	80 91 93 01 	lds	r24, 0x0193	; 0x800193 <temp_integer>
     ece:	1f 92       	push	r1
     ed0:	8f 93       	push	r24
     ed2:	87 e9       	ldi	r24, 0x97	; 151
     ed4:	90 e0       	ldi	r25, 0x00	; 0
     ed6:	9f 93       	push	r25
     ed8:	8f 93       	push	r24
     eda:	8e 01       	movw	r16, r28
     edc:	0f 5f       	subi	r16, 0xFF	; 255
     ede:	1f 4f       	sbci	r17, 0xFF	; 255
     ee0:	1f 93       	push	r17
     ee2:	0f 93       	push	r16
     ee4:	0e 94 ce 0b 	call	0x179c	; 0x179c <sprintf>
	lq_setCursor(&lcd, 1, 12);
     ee8:	4c e0       	ldi	r20, 0x0C	; 12
     eea:	61 e0       	ldi	r22, 0x01	; 1
     eec:	8c e8       	ldi	r24, 0x8C	; 140
     eee:	91 e0       	ldi	r25, 0x01	; 1
     ef0:	0e 94 0a 04 	call	0x814	; 0x814 <lq_setCursor>
	lq_print(&lcd, temp_arr);
     ef4:	b8 01       	movw	r22, r16
     ef6:	8c e8       	ldi	r24, 0x8C	; 140
     ef8:	91 e0       	ldi	r25, 0x01	; 1
     efa:	0e 94 f0 03 	call	0x7e0	; 0x7e0 <lq_print>

	// LCD -> print distance
	char distance_arr[10];
	sprintf(distance_arr, "%3lu" "cm", distance);
     efe:	80 91 fb 01 	lds	r24, 0x01FB	; 0x8001fb <distance+0x3>
     f02:	8f 93       	push	r24
     f04:	80 91 fa 01 	lds	r24, 0x01FA	; 0x8001fa <distance+0x2>
     f08:	8f 93       	push	r24
     f0a:	80 91 f9 01 	lds	r24, 0x01F9	; 0x8001f9 <distance+0x1>
     f0e:	8f 93       	push	r24
     f10:	80 91 f8 01 	lds	r24, 0x01F8	; 0x8001f8 <distance>
     f14:	8f 93       	push	r24
     f16:	8d e9       	ldi	r24, 0x9D	; 157
     f18:	90 e0       	ldi	r25, 0x00	; 0
     f1a:	9f 93       	push	r25
     f1c:	8f 93       	push	r24
     f1e:	06 5f       	subi	r16, 0xF6	; 246
     f20:	1f 4f       	sbci	r17, 0xFF	; 255
     f22:	1f 93       	push	r17
     f24:	0f 93       	push	r16
     f26:	0e 94 ce 0b 	call	0x179c	; 0x179c <sprintf>
	lq_setCursor(&lcd, 0, 11);
     f2a:	4b e0       	ldi	r20, 0x0B	; 11
     f2c:	60 e0       	ldi	r22, 0x00	; 0
     f2e:	8c e8       	ldi	r24, 0x8C	; 140
     f30:	91 e0       	ldi	r25, 0x01	; 1
     f32:	0e 94 0a 04 	call	0x814	; 0x814 <lq_setCursor>
	lq_print(&lcd, distance_arr);
     f36:	b8 01       	movw	r22, r16
     f38:	8c e8       	ldi	r24, 0x8C	; 140
     f3a:	91 e0       	ldi	r25, 0x01	; 1
     f3c:	0e 94 f0 03 	call	0x7e0	; 0x7e0 <lq_print>
}
     f40:	0f b6       	in	r0, 0x3f	; 63
     f42:	f8 94       	cli
     f44:	de bf       	out	0x3e, r29	; 62
     f46:	0f be       	out	0x3f, r0	; 63
     f48:	cd bf       	out	0x3d, r28	; 61
     f4a:	ec 96       	adiw	r28, 0x3c	; 60
     f4c:	0f b6       	in	r0, 0x3f	; 63
     f4e:	f8 94       	cli
     f50:	de bf       	out	0x3e, r29	; 62
     f52:	0f be       	out	0x3f, r0	; 63
     f54:	cd bf       	out	0x3d, r28	; 61
     f56:	df 91       	pop	r29
     f58:	cf 91       	pop	r28
     f5a:	1f 91       	pop	r17
     f5c:	0f 91       	pop	r16
     f5e:	ff 90       	pop	r15
     f60:	ef 90       	pop	r14
     f62:	08 95       	ret

00000f64 <distance_check>:

void distance_check(void)
{
	// SR04 -> get distance
	distance = ultrasonic_triger();
     f64:	0e 94 9b 02 	call	0x536	; 0x536 <ultrasonic_triger>
     f68:	60 93 f8 01 	sts	0x01F8, r22	; 0x8001f8 <distance>
     f6c:	70 93 f9 01 	sts	0x01F9, r23	; 0x8001f9 <distance+0x1>
     f70:	80 93 fa 01 	sts	0x01FA, r24	; 0x8001fa <distance+0x2>
     f74:	90 93 fb 01 	sts	0x01FB, r25	; 0x8001fb <distance+0x3>

	// open trash bin if distance is 20 cm or less
	if (distance <= 20 && distance > 0)
     f78:	dc 01       	movw	r26, r24
     f7a:	cb 01       	movw	r24, r22
     f7c:	01 97       	sbiw	r24, 0x01	; 1
     f7e:	a1 09       	sbc	r26, r1
     f80:	b1 09       	sbc	r27, r1
     f82:	44 97       	sbiw	r24, 0x14	; 20
     f84:	a1 05       	cpc	r26, r1
     f86:	b1 05       	cpc	r27, r1
     f88:	18 f4       	brcc	.+6      	; 0xf90 <distance_check+0x2c>
	{
		trash = true;
     f8a:	81 e0       	ldi	r24, 0x01	; 1
     f8c:	80 93 71 01 	sts	0x0171, r24	; 0x800171 <trash>
     f90:	08 95       	ret

00000f92 <rtc_set_time>:
	}
}

void rtc_set_time(char *time, char *date)
{
     f92:	0f 93       	push	r16
     f94:	1f 93       	push	r17
     f96:	cf 93       	push	r28
     f98:	df 93       	push	r29
     f9a:	cd b7       	in	r28, 0x3d	; 61
     f9c:	de b7       	in	r29, 0x3e	; 62
     f9e:	2c 97       	sbiw	r28, 0x0c	; 12
     fa0:	0f b6       	in	r0, 0x3f	; 63
     fa2:	f8 94       	cli
     fa4:	de bf       	out	0x3e, r29	; 62
     fa6:	0f be       	out	0x3f, r0	; 63
     fa8:	cd bf       	out	0x3d, r28	; 61
     faa:	16 2f       	mov	r17, r22
     fac:	07 2f       	mov	r16, r23
	int hour, minute, second;
	int day, month, year;

	// store date and time in its variables
	sscanf(time, "%d:%d:%d", &hour, &minute, &second);
     fae:	9e 01       	movw	r18, r28
     fb0:	2b 5f       	subi	r18, 0xFB	; 251
     fb2:	3f 4f       	sbci	r19, 0xFF	; 255
     fb4:	3f 93       	push	r19
     fb6:	2f 93       	push	r18
     fb8:	22 50       	subi	r18, 0x02	; 2
     fba:	31 09       	sbc	r19, r1
     fbc:	3f 93       	push	r19
     fbe:	2f 93       	push	r18
     fc0:	22 50       	subi	r18, 0x02	; 2
     fc2:	31 09       	sbc	r19, r1
     fc4:	3f 93       	push	r19
     fc6:	2f 93       	push	r18
     fc8:	24 ea       	ldi	r18, 0xA4	; 164
     fca:	30 e0       	ldi	r19, 0x00	; 0
     fcc:	3f 93       	push	r19
     fce:	2f 93       	push	r18
     fd0:	9f 93       	push	r25
     fd2:	8f 93       	push	r24
     fd4:	0e 94 f0 0b 	call	0x17e0	; 0x17e0 <sscanf>
	sscanf(date, "%d/%d/%d", &month, &day, &year);
     fd8:	ce 01       	movw	r24, r28
     fda:	0b 96       	adiw	r24, 0x0b	; 11
     fdc:	9f 93       	push	r25
     fde:	8f 93       	push	r24
     fe0:	04 97       	sbiw	r24, 0x04	; 4
     fe2:	9f 93       	push	r25
     fe4:	8f 93       	push	r24
     fe6:	02 96       	adiw	r24, 0x02	; 2
     fe8:	9f 93       	push	r25
     fea:	8f 93       	push	r24
     fec:	8d ea       	ldi	r24, 0xAD	; 173
     fee:	90 e0       	ldi	r25, 0x00	; 0
     ff0:	9f 93       	push	r25
     ff2:	8f 93       	push	r24
     ff4:	0f 93       	push	r16
     ff6:	1f 93       	push	r17
     ff8:	0e 94 f0 0b 	call	0x17e0	; 0x17e0 <sscanf>

	// create date and time struct
	t.Second = second;
     ffc:	e4 e8       	ldi	r30, 0x84	; 132
     ffe:	f1 e0       	ldi	r31, 0x01	; 1
    1000:	8d 81       	ldd	r24, Y+5	; 0x05
    1002:	28 2f       	mov	r18, r24
    1004:	80 83       	st	Z, r24
	t.Minute = minute;
    1006:	8b 81       	ldd	r24, Y+3	; 0x03
    1008:	38 2f       	mov	r19, r24
    100a:	81 83       	std	Z+1, r24	; 0x01
	t.Hour = hour;
    100c:	89 81       	ldd	r24, Y+1	; 0x01
    100e:	48 2f       	mov	r20, r24
    1010:	82 83       	std	Z+2, r24	; 0x02
	t.Day = Sunday;
    1012:	82 e0       	ldi	r24, 0x02	; 2
    1014:	58 2f       	mov	r21, r24
    1016:	83 83       	std	Z+3, r24	; 0x03
	t.Date = day;
    1018:	8f 81       	ldd	r24, Y+7	; 0x07
    101a:	68 2f       	mov	r22, r24
    101c:	84 83       	std	Z+4, r24	; 0x04
	t.Month = month;
    101e:	89 85       	ldd	r24, Y+9	; 0x09
    1020:	78 2f       	mov	r23, r24
    1022:	85 83       	std	Z+5, r24	; 0x05
	t.Year = year + 2000;
    1024:	8b 85       	ldd	r24, Y+11	; 0x0b
    1026:	9c 85       	ldd	r25, Y+12	; 0x0c
    1028:	80 53       	subi	r24, 0x30	; 48
    102a:	98 4f       	sbci	r25, 0xF8	; 248
    102c:	97 83       	std	Z+7, r25	; 0x07
    102e:	86 83       	std	Z+6, r24	; 0x06
	RTC_Set(t);
    1030:	90 91 8b 01 	lds	r25, 0x018B	; 0x80018b <t+0x7>
    1034:	0e 94 74 01 	call	0x2e8	; 0x2e8 <RTC_Set>
}
    1038:	0f b6       	in	r0, 0x3f	; 63
    103a:	f8 94       	cli
    103c:	de bf       	out	0x3e, r29	; 62
    103e:	0f be       	out	0x3f, r0	; 63
    1040:	cd bf       	out	0x3d, r28	; 61
    1042:	2c 96       	adiw	r28, 0x0c	; 12
    1044:	0f b6       	in	r0, 0x3f	; 63
    1046:	f8 94       	cli
    1048:	de bf       	out	0x3e, r29	; 62
    104a:	0f be       	out	0x3f, r0	; 63
    104c:	cd bf       	out	0x3d, r28	; 61
    104e:	df 91       	pop	r29
    1050:	cf 91       	pop	r28
    1052:	1f 91       	pop	r17
    1054:	0f 91       	pop	r16
    1056:	08 95       	ret

00001058 <command_set_time>:

void command_set_time(void)
{
	// set input date and time and print on lcd
	rtc_set_time(cmd_first_value, cmd_second_value);
    1058:	6c ef       	ldi	r22, 0xFC	; 252
    105a:	71 e0       	ldi	r23, 0x01	; 1
    105c:	88 e2       	ldi	r24, 0x28	; 40
    105e:	92 e0       	ldi	r25, 0x02	; 2
    1060:	0e 94 c9 07 	call	0xf92	; 0xf92 <rtc_set_time>
	lcd_render();
    1064:	0e 94 fd 06 	call	0xdfa	; 0xdfa <lcd_render>
	serial_send_string("\rDone!\r");
    1068:	86 eb       	ldi	r24, 0xB6	; 182
    106a:	90 e0       	ldi	r25, 0x00	; 0
    106c:	0e 94 eb 04 	call	0x9d6	; 0x9d6 <serial_send_string>
    1070:	08 95       	ret

00001072 <command_help>:
}

void command_help(void)
{
	// print help menu
	serial_send_string("\r******  << Help >>  ******\r");
    1072:	8e eb       	ldi	r24, 0xBE	; 190
    1074:	90 e0       	ldi	r25, 0x00	; 0
    1076:	0e 94 eb 04 	call	0x9d6	; 0x9d6 <serial_send_string>
	serial_send_string("\r   set time XX:YY:ZZ M/D/Y\r");
    107a:	8b ed       	ldi	r24, 0xDB	; 219
    107c:	90 e0       	ldi	r25, 0x00	; 0
    107e:	0e 94 eb 04 	call	0x9d6	; 0x9d6 <serial_send_string>
	serial_send_string("-> Sets the desired time\r");
    1082:	88 ef       	ldi	r24, 0xF8	; 248
    1084:	90 e0       	ldi	r25, 0x00	; 0
    1086:	0e 94 eb 04 	call	0x9d6	; 0x9d6 <serial_send_string>
    108a:	08 95       	ret

0000108c <open_trash>:
}

void open_trash(void)
{
	// open trash bin if it's not already
	if (!is_open)
    108c:	80 91 70 01 	lds	r24, 0x0170	; 0x800170 <is_open>
    1090:	81 11       	cpse	r24, r1
    1092:	09 c0       	rjmp	.+18     	; 0x10a6 <open_trash+0x1a>
	{
		rotate_stepper(4, CW);
    1094:	61 e0       	ldi	r22, 0x01	; 1
    1096:	70 e0       	ldi	r23, 0x00	; 0
    1098:	84 e0       	ldi	r24, 0x04	; 4
    109a:	90 e0       	ldi	r25, 0x00	; 0
    109c:	0e 94 9a 06 	call	0xd34	; 0xd34 <rotate_stepper>
		is_open = true;
    10a0:	81 e0       	ldi	r24, 0x01	; 1
    10a2:	80 93 70 01 	sts	0x0170, r24	; 0x800170 <is_open>
    10a6:	08 95       	ret

000010a8 <close_trash>:
}

void close_trash(void)
{
	// close trash bin if it's not already
	if (is_open)
    10a8:	80 91 70 01 	lds	r24, 0x0170	; 0x800170 <is_open>
    10ac:	88 23       	and	r24, r24
    10ae:	41 f0       	breq	.+16     	; 0x10c0 <close_trash+0x18>
	{
		rotate_stepper(4, CCW);
    10b0:	60 e0       	ldi	r22, 0x00	; 0
    10b2:	70 e0       	ldi	r23, 0x00	; 0
    10b4:	84 e0       	ldi	r24, 0x04	; 4
    10b6:	90 e0       	ldi	r25, 0x00	; 0
    10b8:	0e 94 9a 06 	call	0xd34	; 0xd34 <rotate_stepper>
		is_open = false;
    10bc:	10 92 70 01 	sts	0x0170, r1	; 0x800170 <is_open>
    10c0:	08 95       	ret

000010c2 <button_pressed>:
}

void button_pressed(void)
{
	// open trash bin - manual mode -> ON
	if (!is_open)
    10c2:	80 91 70 01 	lds	r24, 0x0170	; 0x800170 <is_open>
    10c6:	81 11       	cpse	r24, r1
    10c8:	06 c0       	rjmp	.+12     	; 0x10d6 <button_pressed+0x14>
	{
		manual = true;
    10ca:	81 e0       	ldi	r24, 0x01	; 1
    10cc:	80 93 6e 01 	sts	0x016E, r24	; 0x80016e <manual>
		open_trash();
    10d0:	0e 94 46 08 	call	0x108c	; 0x108c <open_trash>
    10d4:	08 95       	ret
	}
	// close trash bin - manual mode -> OFF
	else
	{
		close_trash();
    10d6:	0e 94 54 08 	call	0x10a8	; 0x10a8 <close_trash>
		manual = false;
    10da:	10 92 6e 01 	sts	0x016E, r1	; 0x80016e <manual>
    10de:	08 95       	ret

000010e0 <stop_alarm>:
}

void stop_alarm(void)
{
	// alarm -> interrupt disable
	RTC_AlarmCheck(Alarm_1);
    10e0:	80 e0       	ldi	r24, 0x00	; 0
    10e2:	0e 94 7f 02 	call	0x4fe	; 0x4fe <RTC_AlarmCheck>
	// buzzer -> OFF
	CBIT(BUZZER_PORT, BUZZER_PIN);
    10e6:	97 98       	cbi	0x12, 7	; 18
    10e8:	08 95       	ret

000010ea <get_cmd>:

void get_cmd(char c)
{
	static uint8_t index = 0;

	if (c == '\r')
    10ea:	8d 30       	cpi	r24, 0x0D	; 13
    10ec:	39 f4       	brne	.+14     	; 0x10fc <get_cmd+0x12>
	{
		command[index] = '\0';
    10ee:	e0 91 68 01 	lds	r30, 0x0168	; 0x800168 <index.2634>
    10f2:	f0 e0       	ldi	r31, 0x00	; 0
    10f4:	ec 56       	subi	r30, 0x6C	; 108
    10f6:	fe 4f       	sbci	r31, 0xFE	; 254
    10f8:	10 82       	st	Z, r1
    10fa:	09 c0       	rjmp	.+18     	; 0x110e <get_cmd+0x24>
	}
	else
	{
		command[index] = c;
    10fc:	90 91 68 01 	lds	r25, 0x0168	; 0x800168 <index.2634>
    1100:	e9 2f       	mov	r30, r25
    1102:	f0 e0       	ldi	r31, 0x00	; 0
    1104:	ec 56       	subi	r30, 0x6C	; 108
    1106:	fe 4f       	sbci	r31, 0xFE	; 254
    1108:	80 83       	st	Z, r24
	}

	if (command[index] == '\0')
    110a:	81 11       	cpse	r24, r1
    110c:	27 c0       	rjmp	.+78     	; 0x115c <get_cmd+0x72>
	{
		split_string_by_space();
    110e:	0e 94 26 06 	call	0xc4c	; 0xc4c <split_string_by_space>

		if (strcmp(cmd_key, cmd_set_time) == 0)
    1112:	60 91 63 00 	lds	r22, 0x0063	; 0x800063 <cmd_set_time>
    1116:	70 91 64 00 	lds	r23, 0x0064	; 0x800064 <cmd_set_time+0x1>
    111a:	84 e1       	ldi	r24, 0x14	; 20
    111c:	92 e0       	ldi	r25, 0x02	; 2
    111e:	0e 94 be 0b 	call	0x177c	; 0x177c <strcmp>
    1122:	89 2b       	or	r24, r25
    1124:	21 f4       	brne	.+8      	; 0x112e <get_cmd+0x44>
		{
			set_time = true;
    1126:	81 e0       	ldi	r24, 0x01	; 1
    1128:	80 93 74 01 	sts	0x0174, r24	; 0x800174 <set_time>
    112c:	12 c0       	rjmp	.+36     	; 0x1152 <get_cmd+0x68>
		}
		else if (strcmp(command, cmd_help) == 0)
    112e:	60 91 61 00 	lds	r22, 0x0061	; 0x800061 <cmd_help>
    1132:	70 91 62 00 	lds	r23, 0x0062	; 0x800062 <cmd_help+0x1>
    1136:	84 e9       	ldi	r24, 0x94	; 148
    1138:	91 e0       	ldi	r25, 0x01	; 1
    113a:	0e 94 be 0b 	call	0x177c	; 0x177c <strcmp>
    113e:	89 2b       	or	r24, r25
    1140:	21 f4       	brne	.+8      	; 0x114a <get_cmd+0x60>
		{
			help = true;
    1142:	81 e0       	ldi	r24, 0x01	; 1
    1144:	80 93 73 01 	sts	0x0173, r24	; 0x800173 <help>
    1148:	04 c0       	rjmp	.+8      	; 0x1152 <get_cmd+0x68>
		}
		else
		{
			serial_send_string("\rInvalid input!\r");
    114a:	82 e1       	ldi	r24, 0x12	; 18
    114c:	91 e0       	ldi	r25, 0x01	; 1
    114e:	0e 94 eb 04 	call	0x9d6	; 0x9d6 <serial_send_string>
		}
		strcpy(command, "");
    1152:	10 92 94 01 	sts	0x0194, r1	; 0x800194 <command>
		index = 0;
    1156:	10 92 68 01 	sts	0x0168, r1	; 0x800168 <index.2634>
    115a:	08 95       	ret
	}
	else
	{
		index++;
    115c:	9f 5f       	subi	r25, 0xFF	; 255
    115e:	90 93 68 01 	sts	0x0168, r25	; 0x800168 <index.2634>
    1162:	08 95       	ret

00001164 <main>:
	}
}

int main(void)
{
	init();
    1164:	0e 94 0f 06 	call	0xc1e	; 0xc1e <init>

	serial_send_string("Hello there!\r");
    1168:	83 e2       	ldi	r24, 0x23	; 35
    116a:	91 e0       	ldi	r25, 0x01	; 1
    116c:	0e 94 eb 04 	call	0x9d6	; 0x9d6 <serial_send_string>
	serial_send_string("Write help for list of commands.\r");
    1170:	81 e3       	ldi	r24, 0x31	; 49
    1172:	91 e0       	ldi	r25, 0x01	; 1
    1174:	0e 94 eb 04 	call	0x9d6	; 0x9d6 <serial_send_string>

	sei();
    1178:	78 94       	sei

	while (1)
	{
		if (half_second)
    117a:	80 91 78 01 	lds	r24, 0x0178	; 0x800178 <half_second>
    117e:	88 23       	and	r24, r24
    1180:	51 f0       	breq	.+20     	; 0x1196 <main+0x32>
		{
			if (!manual)
    1182:	80 91 6e 01 	lds	r24, 0x016E	; 0x80016e <manual>
    1186:	81 11       	cpse	r24, r1
    1188:	02 c0       	rjmp	.+4      	; 0x118e <main+0x2a>
			{
				distance_check();
    118a:	0e 94 b2 07 	call	0xf64	; 0xf64 <distance_check>
			}
			counter_ultrasonic = 0;
    118e:	10 92 69 01 	sts	0x0169, r1	; 0x800169 <counter_ultrasonic>
			half_second = false;
    1192:	10 92 78 01 	sts	0x0178, r1	; 0x800178 <half_second>
		}

		if (one_second)
    1196:	80 91 77 01 	lds	r24, 0x0177	; 0x800177 <one_second>
    119a:	88 23       	and	r24, r24
    119c:	41 f0       	breq	.+16     	; 0x11ae <main+0x4a>
		{
			adc_read();
    119e:	0e 94 fb 06 	call	0xdf6	; 0xdf6 <adc_read>
			lcd_render();
    11a2:	0e 94 fd 06 	call	0xdfa	; 0xdfa <lcd_render>
			counter_time = 0;
    11a6:	10 92 6c 01 	sts	0x016C, r1	; 0x80016c <counter_time>
			one_second = false;
    11aa:	10 92 77 01 	sts	0x0177, r1	; 0x800177 <one_second>
		}

		if (three_second)
    11ae:	80 91 76 01 	lds	r24, 0x0176	; 0x800176 <three_second>
    11b2:	88 23       	and	r24, r24
    11b4:	41 f0       	breq	.+16     	; 0x11c6 <main+0x62>
		{
			stop_alarm();
    11b6:	0e 94 70 08 	call	0x10e0	; 0x10e0 <stop_alarm>
			counter_buzzer = 0;
    11ba:	10 92 6b 01 	sts	0x016B, r1	; 0x80016b <counter_buzzer+0x1>
    11be:	10 92 6a 01 	sts	0x016A, r1	; 0x80016a <counter_buzzer>
			three_second = false;
    11c2:	10 92 76 01 	sts	0x0176, r1	; 0x800176 <three_second>
		}

		if (ten_second)
    11c6:	80 91 75 01 	lds	r24, 0x0175	; 0x800175 <ten_second>
    11ca:	88 23       	and	r24, r24
    11cc:	51 f0       	breq	.+20     	; 0x11e2 <main+0x7e>
		{
			if (!manual)
    11ce:	80 91 6e 01 	lds	r24, 0x016E	; 0x80016e <manual>
    11d2:	81 11       	cpse	r24, r1
    11d4:	02 c0       	rjmp	.+4      	; 0x11da <main+0x76>
			{
				close_trash();
    11d6:	0e 94 54 08 	call	0x10a8	; 0x10a8 <close_trash>
			}
			counter_trash = 0;
    11da:	10 92 6d 01 	sts	0x016D, r1	; 0x80016d <counter_trash>
			ten_second = false;
    11de:	10 92 75 01 	sts	0x0175, r1	; 0x800175 <ten_second>
		}

		if (trash)
    11e2:	80 91 71 01 	lds	r24, 0x0171	; 0x800171 <trash>
    11e6:	88 23       	and	r24, r24
    11e8:	51 f0       	breq	.+20     	; 0x11fe <main+0x9a>
		{
			if (!manual)
    11ea:	80 91 6e 01 	lds	r24, 0x016E	; 0x80016e <manual>
    11ee:	81 11       	cpse	r24, r1
    11f0:	02 c0       	rjmp	.+4      	; 0x11f6 <main+0x92>
			{
				open_trash();
    11f2:	0e 94 46 08 	call	0x108c	; 0x108c <open_trash>
			}
			counter_trash = 0;
    11f6:	10 92 6d 01 	sts	0x016D, r1	; 0x80016d <counter_trash>
			trash = false;
    11fa:	10 92 71 01 	sts	0x0171, r1	; 0x800171 <trash>
		}

		if (buzzer)
    11fe:	80 91 72 01 	lds	r24, 0x0172	; 0x800172 <buzzer>
    1202:	88 23       	and	r24, r24
    1204:	39 f0       	breq	.+14     	; 0x1214 <main+0xb0>
		{
			SBIT(BUZZER_PORT, BUZZER_PIN);
    1206:	97 9a       	sbi	0x12, 7	; 18
			counter_buzzer = 0;
    1208:	10 92 6b 01 	sts	0x016B, r1	; 0x80016b <counter_buzzer+0x1>
    120c:	10 92 6a 01 	sts	0x016A, r1	; 0x80016a <counter_buzzer>
			buzzer = false;
    1210:	10 92 72 01 	sts	0x0172, r1	; 0x800172 <buzzer>
		}

		if (is_press)
    1214:	80 91 6f 01 	lds	r24, 0x016F	; 0x80016f <is_press>
    1218:	88 23       	and	r24, r24
    121a:	21 f0       	breq	.+8      	; 0x1224 <main+0xc0>
		{
			button_pressed();
    121c:	0e 94 61 08 	call	0x10c2	; 0x10c2 <button_pressed>
			is_press = false;
    1220:	10 92 6f 01 	sts	0x016F, r1	; 0x80016f <is_press>
		}

		if (set_time)
    1224:	80 91 74 01 	lds	r24, 0x0174	; 0x800174 <set_time>
    1228:	88 23       	and	r24, r24
    122a:	21 f0       	breq	.+8      	; 0x1234 <main+0xd0>
		{
			command_set_time();
    122c:	0e 94 2c 08 	call	0x1058	; 0x1058 <command_set_time>
			set_time = false;
    1230:	10 92 74 01 	sts	0x0174, r1	; 0x800174 <set_time>
		}

		if (help)
    1234:	80 91 73 01 	lds	r24, 0x0173	; 0x800173 <help>
    1238:	88 23       	and	r24, r24
    123a:	09 f4       	brne	.+2      	; 0x123e <main+0xda>
    123c:	9e cf       	rjmp	.-196    	; 0x117a <main+0x16>
		{
			command_help();
    123e:	0e 94 39 08 	call	0x1072	; 0x1072 <command_help>
			help = false;
    1242:	10 92 73 01 	sts	0x0173, r1	; 0x800173 <help>
    1246:	99 cf       	rjmp	.-206    	; 0x117a <main+0x16>

00001248 <__vector_2>:

	return 0;
}

ISR(INT1_vect)
{
    1248:	1f 92       	push	r1
    124a:	0f 92       	push	r0
    124c:	0f b6       	in	r0, 0x3f	; 63
    124e:	0f 92       	push	r0
    1250:	11 24       	eor	r1, r1
    1252:	8f 93       	push	r24
	buzzer = true;
    1254:	81 e0       	ldi	r24, 0x01	; 1
    1256:	80 93 72 01 	sts	0x0172, r24	; 0x800172 <buzzer>
}
    125a:	8f 91       	pop	r24
    125c:	0f 90       	pop	r0
    125e:	0f be       	out	0x3f, r0	; 63
    1260:	0f 90       	pop	r0
    1262:	1f 90       	pop	r1
    1264:	18 95       	reti

00001266 <__vector_3>:

ISR(INT2_vect)
{
    1266:	1f 92       	push	r1
    1268:	0f 92       	push	r0
    126a:	0f b6       	in	r0, 0x3f	; 63
    126c:	0f 92       	push	r0
    126e:	11 24       	eor	r1, r1
    1270:	8f 93       	push	r24
	is_press = true;
    1272:	81 e0       	ldi	r24, 0x01	; 1
    1274:	80 93 6f 01 	sts	0x016F, r24	; 0x80016f <is_press>
}
    1278:	8f 91       	pop	r24
    127a:	0f 90       	pop	r0
    127c:	0f be       	out	0x3f, r0	; 63
    127e:	0f 90       	pop	r0
    1280:	1f 90       	pop	r1
    1282:	18 95       	reti

00001284 <__vector_11>:

ISR(TIMER0_OVF_vect)
{
    1284:	1f 92       	push	r1
    1286:	0f 92       	push	r0
    1288:	0f b6       	in	r0, 0x3f	; 63
    128a:	0f 92       	push	r0
    128c:	11 24       	eor	r1, r1
    128e:	8f 93       	push	r24
    1290:	9f 93       	push	r25
	TCNT0 = 177;
    1292:	81 eb       	ldi	r24, 0xB1	; 177
    1294:	82 bf       	out	0x32, r24	; 50
	TIFR = (1 << TOV0);
    1296:	81 e0       	ldi	r24, 0x01	; 1
    1298:	88 bf       	out	0x38, r24	; 56

	counter_ultrasonic++;
    129a:	90 91 69 01 	lds	r25, 0x0169	; 0x800169 <counter_ultrasonic>
    129e:	9f 5f       	subi	r25, 0xFF	; 255
    12a0:	90 93 69 01 	sts	0x0169, r25	; 0x800169 <counter_ultrasonic>
	counter_time++;
    12a4:	80 91 6c 01 	lds	r24, 0x016C	; 0x80016c <counter_time>
    12a8:	8f 5f       	subi	r24, 0xFF	; 255
    12aa:	80 93 6c 01 	sts	0x016C, r24	; 0x80016c <counter_time>

	if (counter_ultrasonic == 50)
    12ae:	92 33       	cpi	r25, 0x32	; 50
    12b0:	19 f4       	brne	.+6      	; 0x12b8 <__vector_11+0x34>
	{
		half_second = true;
    12b2:	91 e0       	ldi	r25, 0x01	; 1
    12b4:	90 93 78 01 	sts	0x0178, r25	; 0x800178 <half_second>
	}

	if (counter_time == 100)
    12b8:	84 36       	cpi	r24, 0x64	; 100
    12ba:	19 f4       	brne	.+6      	; 0x12c2 <__vector_11+0x3e>
	{
		one_second = true;
    12bc:	81 e0       	ldi	r24, 0x01	; 1
    12be:	80 93 77 01 	sts	0x0177, r24	; 0x800177 <one_second>
	}
}
    12c2:	9f 91       	pop	r25
    12c4:	8f 91       	pop	r24
    12c6:	0f 90       	pop	r0
    12c8:	0f be       	out	0x3f, r0	; 63
    12ca:	0f 90       	pop	r0
    12cc:	1f 90       	pop	r1
    12ce:	18 95       	reti

000012d0 <__vector_9>:

ISR(TIMER1_OVF_vect)
{
    12d0:	1f 92       	push	r1
    12d2:	0f 92       	push	r0
    12d4:	0f b6       	in	r0, 0x3f	; 63
    12d6:	0f 92       	push	r0
    12d8:	11 24       	eor	r1, r1
    12da:	2f 93       	push	r18
    12dc:	3f 93       	push	r19
    12de:	8f 93       	push	r24
    12e0:	9f 93       	push	r25
	TCNT1 = 57723;
    12e2:	8b e7       	ldi	r24, 0x7B	; 123
    12e4:	91 ee       	ldi	r25, 0xE1	; 225
    12e6:	9d bd       	out	0x2d, r25	; 45
    12e8:	8c bd       	out	0x2c, r24	; 44
	TIFR = (1 << TOV1);
    12ea:	84 e0       	ldi	r24, 0x04	; 4
    12ec:	88 bf       	out	0x38, r24	; 56

	counter_buzzer++;
    12ee:	20 91 6a 01 	lds	r18, 0x016A	; 0x80016a <counter_buzzer>
    12f2:	30 91 6b 01 	lds	r19, 0x016B	; 0x80016b <counter_buzzer+0x1>
    12f6:	2f 5f       	subi	r18, 0xFF	; 255
    12f8:	3f 4f       	sbci	r19, 0xFF	; 255
    12fa:	30 93 6b 01 	sts	0x016B, r19	; 0x80016b <counter_buzzer+0x1>
    12fe:	20 93 6a 01 	sts	0x016A, r18	; 0x80016a <counter_buzzer>
	counter_trash++;
    1302:	80 91 6d 01 	lds	r24, 0x016D	; 0x80016d <counter_trash>
    1306:	8f 5f       	subi	r24, 0xFF	; 255
    1308:	80 93 6d 01 	sts	0x016D, r24	; 0x80016d <counter_trash>

	if (counter_buzzer == 3)
    130c:	23 30       	cpi	r18, 0x03	; 3
    130e:	31 05       	cpc	r19, r1
    1310:	19 f4       	brne	.+6      	; 0x1318 <__vector_9+0x48>
	{
		three_second = true;
    1312:	91 e0       	ldi	r25, 0x01	; 1
    1314:	90 93 76 01 	sts	0x0176, r25	; 0x800176 <three_second>
	}

	if (counter_trash == 10)
    1318:	8a 30       	cpi	r24, 0x0A	; 10
    131a:	19 f4       	brne	.+6      	; 0x1322 <__vector_9+0x52>
	{
		ten_second = true;
    131c:	81 e0       	ldi	r24, 0x01	; 1
    131e:	80 93 75 01 	sts	0x0175, r24	; 0x800175 <ten_second>
	}
}
    1322:	9f 91       	pop	r25
    1324:	8f 91       	pop	r24
    1326:	3f 91       	pop	r19
    1328:	2f 91       	pop	r18
    132a:	0f 90       	pop	r0
    132c:	0f be       	out	0x3f, r0	; 63
    132e:	0f 90       	pop	r0
    1330:	1f 90       	pop	r1
    1332:	18 95       	reti

00001334 <__vector_16>:

ISR(ADC_vect)
{
    1334:	1f 92       	push	r1
    1336:	0f 92       	push	r0
    1338:	0f b6       	in	r0, 0x3f	; 63
    133a:	0f 92       	push	r0
    133c:	11 24       	eor	r1, r1
    133e:	2f 93       	push	r18
    1340:	3f 93       	push	r19
    1342:	4f 93       	push	r20
    1344:	5f 93       	push	r21
    1346:	6f 93       	push	r22
    1348:	7f 93       	push	r23
    134a:	8f 93       	push	r24
    134c:	9f 93       	push	r25
    134e:	af 93       	push	r26
    1350:	bf 93       	push	r27
    1352:	ef 93       	push	r30
    1354:	ff 93       	push	r31
	uint16_t temp = ADC;
    1356:	64 b1       	in	r22, 0x04	; 4
    1358:	75 b1       	in	r23, 0x05	; 5
	temp_decimal = (float)temp / 10 - 0.2;
    135a:	80 e0       	ldi	r24, 0x00	; 0
    135c:	90 e0       	ldi	r25, 0x00	; 0
    135e:	0e 94 0e 0b 	call	0x161c	; 0x161c <__floatunsisf>
    1362:	20 e0       	ldi	r18, 0x00	; 0
    1364:	30 e0       	ldi	r19, 0x00	; 0
    1366:	40 e2       	ldi	r20, 0x20	; 32
    1368:	51 e4       	ldi	r21, 0x41	; 65
    136a:	0e 94 6d 0a 	call	0x14da	; 0x14da <__divsf3>
    136e:	2d ec       	ldi	r18, 0xCD	; 205
    1370:	3c ec       	ldi	r19, 0xCC	; 204
    1372:	4c e4       	ldi	r20, 0x4C	; 76
    1374:	5e e3       	ldi	r21, 0x3E	; 62
    1376:	0e 94 00 0a 	call	0x1400	; 0x1400 <__subsf3>
    137a:	60 93 10 02 	sts	0x0210, r22	; 0x800210 <temp_decimal>
    137e:	70 93 11 02 	sts	0x0211, r23	; 0x800211 <temp_decimal+0x1>
    1382:	80 93 12 02 	sts	0x0212, r24	; 0x800212 <temp_decimal+0x2>
    1386:	90 93 13 02 	sts	0x0213, r25	; 0x800213 <temp_decimal+0x3>
	temp_integer = (uint8_t)temp_decimal;
    138a:	0e 94 df 0a 	call	0x15be	; 0x15be <__fixunssfsi>
    138e:	60 93 93 01 	sts	0x0193, r22	; 0x800193 <temp_integer>
}
    1392:	ff 91       	pop	r31
    1394:	ef 91       	pop	r30
    1396:	bf 91       	pop	r27
    1398:	af 91       	pop	r26
    139a:	9f 91       	pop	r25
    139c:	8f 91       	pop	r24
    139e:	7f 91       	pop	r23
    13a0:	6f 91       	pop	r22
    13a2:	5f 91       	pop	r21
    13a4:	4f 91       	pop	r20
    13a6:	3f 91       	pop	r19
    13a8:	2f 91       	pop	r18
    13aa:	0f 90       	pop	r0
    13ac:	0f be       	out	0x3f, r0	; 63
    13ae:	0f 90       	pop	r0
    13b0:	1f 90       	pop	r1
    13b2:	18 95       	reti

000013b4 <__vector_13>:

#if SERIAL_INTERRUPT == 1
ISR(USART_RXC_vect)
{
    13b4:	1f 92       	push	r1
    13b6:	0f 92       	push	r0
    13b8:	0f b6       	in	r0, 0x3f	; 63
    13ba:	0f 92       	push	r0
    13bc:	11 24       	eor	r1, r1
    13be:	2f 93       	push	r18
    13c0:	3f 93       	push	r19
    13c2:	4f 93       	push	r20
    13c4:	5f 93       	push	r21
    13c6:	6f 93       	push	r22
    13c8:	7f 93       	push	r23
    13ca:	8f 93       	push	r24
    13cc:	9f 93       	push	r25
    13ce:	af 93       	push	r26
    13d0:	bf 93       	push	r27
    13d2:	ef 93       	push	r30
    13d4:	ff 93       	push	r31
	char c = UDR;
    13d6:	8c b1       	in	r24, 0x0c	; 12
	UDR = c;
    13d8:	8c b9       	out	0x0c, r24	; 12

	get_cmd(c);
    13da:	0e 94 75 08 	call	0x10ea	; 0x10ea <get_cmd>
}
    13de:	ff 91       	pop	r31
    13e0:	ef 91       	pop	r30
    13e2:	bf 91       	pop	r27
    13e4:	af 91       	pop	r26
    13e6:	9f 91       	pop	r25
    13e8:	8f 91       	pop	r24
    13ea:	7f 91       	pop	r23
    13ec:	6f 91       	pop	r22
    13ee:	5f 91       	pop	r21
    13f0:	4f 91       	pop	r20
    13f2:	3f 91       	pop	r19
    13f4:	2f 91       	pop	r18
    13f6:	0f 90       	pop	r0
    13f8:	0f be       	out	0x3f, r0	; 63
    13fa:	0f 90       	pop	r0
    13fc:	1f 90       	pop	r1
    13fe:	18 95       	reti

00001400 <__subsf3>:
    1400:	50 58       	subi	r21, 0x80	; 128

00001402 <__addsf3>:
    1402:	bb 27       	eor	r27, r27
    1404:	aa 27       	eor	r26, r26
    1406:	0e 94 18 0a 	call	0x1430	; 0x1430 <__addsf3x>
    140a:	0c 94 62 0b 	jmp	0x16c4	; 0x16c4 <__fp_round>
    140e:	0e 94 54 0b 	call	0x16a8	; 0x16a8 <__fp_pscA>
    1412:	38 f0       	brcs	.+14     	; 0x1422 <__addsf3+0x20>
    1414:	0e 94 5b 0b 	call	0x16b6	; 0x16b6 <__fp_pscB>
    1418:	20 f0       	brcs	.+8      	; 0x1422 <__addsf3+0x20>
    141a:	39 f4       	brne	.+14     	; 0x142a <__addsf3+0x28>
    141c:	9f 3f       	cpi	r25, 0xFF	; 255
    141e:	19 f4       	brne	.+6      	; 0x1426 <__addsf3+0x24>
    1420:	26 f4       	brtc	.+8      	; 0x142a <__addsf3+0x28>
    1422:	0c 94 51 0b 	jmp	0x16a2	; 0x16a2 <__fp_nan>
    1426:	0e f4       	brtc	.+2      	; 0x142a <__addsf3+0x28>
    1428:	e0 95       	com	r30
    142a:	e7 fb       	bst	r30, 7
    142c:	0c 94 4b 0b 	jmp	0x1696	; 0x1696 <__fp_inf>

00001430 <__addsf3x>:
    1430:	e9 2f       	mov	r30, r25
    1432:	0e 94 73 0b 	call	0x16e6	; 0x16e6 <__fp_split3>
    1436:	58 f3       	brcs	.-42     	; 0x140e <__addsf3+0xc>
    1438:	ba 17       	cp	r27, r26
    143a:	62 07       	cpc	r22, r18
    143c:	73 07       	cpc	r23, r19
    143e:	84 07       	cpc	r24, r20
    1440:	95 07       	cpc	r25, r21
    1442:	20 f0       	brcs	.+8      	; 0x144c <__addsf3x+0x1c>
    1444:	79 f4       	brne	.+30     	; 0x1464 <__addsf3x+0x34>
    1446:	a6 f5       	brtc	.+104    	; 0x14b0 <__addsf3x+0x80>
    1448:	0c 94 95 0b 	jmp	0x172a	; 0x172a <__fp_zero>
    144c:	0e f4       	brtc	.+2      	; 0x1450 <__addsf3x+0x20>
    144e:	e0 95       	com	r30
    1450:	0b 2e       	mov	r0, r27
    1452:	ba 2f       	mov	r27, r26
    1454:	a0 2d       	mov	r26, r0
    1456:	0b 01       	movw	r0, r22
    1458:	b9 01       	movw	r22, r18
    145a:	90 01       	movw	r18, r0
    145c:	0c 01       	movw	r0, r24
    145e:	ca 01       	movw	r24, r20
    1460:	a0 01       	movw	r20, r0
    1462:	11 24       	eor	r1, r1
    1464:	ff 27       	eor	r31, r31
    1466:	59 1b       	sub	r21, r25
    1468:	99 f0       	breq	.+38     	; 0x1490 <__addsf3x+0x60>
    146a:	59 3f       	cpi	r21, 0xF9	; 249
    146c:	50 f4       	brcc	.+20     	; 0x1482 <__addsf3x+0x52>
    146e:	50 3e       	cpi	r21, 0xE0	; 224
    1470:	68 f1       	brcs	.+90     	; 0x14cc <__addsf3x+0x9c>
    1472:	1a 16       	cp	r1, r26
    1474:	f0 40       	sbci	r31, 0x00	; 0
    1476:	a2 2f       	mov	r26, r18
    1478:	23 2f       	mov	r18, r19
    147a:	34 2f       	mov	r19, r20
    147c:	44 27       	eor	r20, r20
    147e:	58 5f       	subi	r21, 0xF8	; 248
    1480:	f3 cf       	rjmp	.-26     	; 0x1468 <__addsf3x+0x38>
    1482:	46 95       	lsr	r20
    1484:	37 95       	ror	r19
    1486:	27 95       	ror	r18
    1488:	a7 95       	ror	r26
    148a:	f0 40       	sbci	r31, 0x00	; 0
    148c:	53 95       	inc	r21
    148e:	c9 f7       	brne	.-14     	; 0x1482 <__addsf3x+0x52>
    1490:	7e f4       	brtc	.+30     	; 0x14b0 <__addsf3x+0x80>
    1492:	1f 16       	cp	r1, r31
    1494:	ba 0b       	sbc	r27, r26
    1496:	62 0b       	sbc	r22, r18
    1498:	73 0b       	sbc	r23, r19
    149a:	84 0b       	sbc	r24, r20
    149c:	ba f0       	brmi	.+46     	; 0x14cc <__addsf3x+0x9c>
    149e:	91 50       	subi	r25, 0x01	; 1
    14a0:	a1 f0       	breq	.+40     	; 0x14ca <__addsf3x+0x9a>
    14a2:	ff 0f       	add	r31, r31
    14a4:	bb 1f       	adc	r27, r27
    14a6:	66 1f       	adc	r22, r22
    14a8:	77 1f       	adc	r23, r23
    14aa:	88 1f       	adc	r24, r24
    14ac:	c2 f7       	brpl	.-16     	; 0x149e <__addsf3x+0x6e>
    14ae:	0e c0       	rjmp	.+28     	; 0x14cc <__addsf3x+0x9c>
    14b0:	ba 0f       	add	r27, r26
    14b2:	62 1f       	adc	r22, r18
    14b4:	73 1f       	adc	r23, r19
    14b6:	84 1f       	adc	r24, r20
    14b8:	48 f4       	brcc	.+18     	; 0x14cc <__addsf3x+0x9c>
    14ba:	87 95       	ror	r24
    14bc:	77 95       	ror	r23
    14be:	67 95       	ror	r22
    14c0:	b7 95       	ror	r27
    14c2:	f7 95       	ror	r31
    14c4:	9e 3f       	cpi	r25, 0xFE	; 254
    14c6:	08 f0       	brcs	.+2      	; 0x14ca <__addsf3x+0x9a>
    14c8:	b0 cf       	rjmp	.-160    	; 0x142a <__addsf3+0x28>
    14ca:	93 95       	inc	r25
    14cc:	88 0f       	add	r24, r24
    14ce:	08 f0       	brcs	.+2      	; 0x14d2 <__addsf3x+0xa2>
    14d0:	99 27       	eor	r25, r25
    14d2:	ee 0f       	add	r30, r30
    14d4:	97 95       	ror	r25
    14d6:	87 95       	ror	r24
    14d8:	08 95       	ret

000014da <__divsf3>:
    14da:	0e 94 81 0a 	call	0x1502	; 0x1502 <__divsf3x>
    14de:	0c 94 62 0b 	jmp	0x16c4	; 0x16c4 <__fp_round>
    14e2:	0e 94 5b 0b 	call	0x16b6	; 0x16b6 <__fp_pscB>
    14e6:	58 f0       	brcs	.+22     	; 0x14fe <__divsf3+0x24>
    14e8:	0e 94 54 0b 	call	0x16a8	; 0x16a8 <__fp_pscA>
    14ec:	40 f0       	brcs	.+16     	; 0x14fe <__divsf3+0x24>
    14ee:	29 f4       	brne	.+10     	; 0x14fa <__divsf3+0x20>
    14f0:	5f 3f       	cpi	r21, 0xFF	; 255
    14f2:	29 f0       	breq	.+10     	; 0x14fe <__divsf3+0x24>
    14f4:	0c 94 4b 0b 	jmp	0x1696	; 0x1696 <__fp_inf>
    14f8:	51 11       	cpse	r21, r1
    14fa:	0c 94 96 0b 	jmp	0x172c	; 0x172c <__fp_szero>
    14fe:	0c 94 51 0b 	jmp	0x16a2	; 0x16a2 <__fp_nan>

00001502 <__divsf3x>:
    1502:	0e 94 73 0b 	call	0x16e6	; 0x16e6 <__fp_split3>
    1506:	68 f3       	brcs	.-38     	; 0x14e2 <__divsf3+0x8>

00001508 <__divsf3_pse>:
    1508:	99 23       	and	r25, r25
    150a:	b1 f3       	breq	.-20     	; 0x14f8 <__divsf3+0x1e>
    150c:	55 23       	and	r21, r21
    150e:	91 f3       	breq	.-28     	; 0x14f4 <__divsf3+0x1a>
    1510:	95 1b       	sub	r25, r21
    1512:	55 0b       	sbc	r21, r21
    1514:	bb 27       	eor	r27, r27
    1516:	aa 27       	eor	r26, r26
    1518:	62 17       	cp	r22, r18
    151a:	73 07       	cpc	r23, r19
    151c:	84 07       	cpc	r24, r20
    151e:	38 f0       	brcs	.+14     	; 0x152e <__divsf3_pse+0x26>
    1520:	9f 5f       	subi	r25, 0xFF	; 255
    1522:	5f 4f       	sbci	r21, 0xFF	; 255
    1524:	22 0f       	add	r18, r18
    1526:	33 1f       	adc	r19, r19
    1528:	44 1f       	adc	r20, r20
    152a:	aa 1f       	adc	r26, r26
    152c:	a9 f3       	breq	.-22     	; 0x1518 <__divsf3_pse+0x10>
    152e:	35 d0       	rcall	.+106    	; 0x159a <__divsf3_pse+0x92>
    1530:	0e 2e       	mov	r0, r30
    1532:	3a f0       	brmi	.+14     	; 0x1542 <__divsf3_pse+0x3a>
    1534:	e0 e8       	ldi	r30, 0x80	; 128
    1536:	32 d0       	rcall	.+100    	; 0x159c <__divsf3_pse+0x94>
    1538:	91 50       	subi	r25, 0x01	; 1
    153a:	50 40       	sbci	r21, 0x00	; 0
    153c:	e6 95       	lsr	r30
    153e:	00 1c       	adc	r0, r0
    1540:	ca f7       	brpl	.-14     	; 0x1534 <__divsf3_pse+0x2c>
    1542:	2b d0       	rcall	.+86     	; 0x159a <__divsf3_pse+0x92>
    1544:	fe 2f       	mov	r31, r30
    1546:	29 d0       	rcall	.+82     	; 0x159a <__divsf3_pse+0x92>
    1548:	66 0f       	add	r22, r22
    154a:	77 1f       	adc	r23, r23
    154c:	88 1f       	adc	r24, r24
    154e:	bb 1f       	adc	r27, r27
    1550:	26 17       	cp	r18, r22
    1552:	37 07       	cpc	r19, r23
    1554:	48 07       	cpc	r20, r24
    1556:	ab 07       	cpc	r26, r27
    1558:	b0 e8       	ldi	r27, 0x80	; 128
    155a:	09 f0       	breq	.+2      	; 0x155e <__divsf3_pse+0x56>
    155c:	bb 0b       	sbc	r27, r27
    155e:	80 2d       	mov	r24, r0
    1560:	bf 01       	movw	r22, r30
    1562:	ff 27       	eor	r31, r31
    1564:	93 58       	subi	r25, 0x83	; 131
    1566:	5f 4f       	sbci	r21, 0xFF	; 255
    1568:	3a f0       	brmi	.+14     	; 0x1578 <__divsf3_pse+0x70>
    156a:	9e 3f       	cpi	r25, 0xFE	; 254
    156c:	51 05       	cpc	r21, r1
    156e:	78 f0       	brcs	.+30     	; 0x158e <__divsf3_pse+0x86>
    1570:	0c 94 4b 0b 	jmp	0x1696	; 0x1696 <__fp_inf>
    1574:	0c 94 96 0b 	jmp	0x172c	; 0x172c <__fp_szero>
    1578:	5f 3f       	cpi	r21, 0xFF	; 255
    157a:	e4 f3       	brlt	.-8      	; 0x1574 <__divsf3_pse+0x6c>
    157c:	98 3e       	cpi	r25, 0xE8	; 232
    157e:	d4 f3       	brlt	.-12     	; 0x1574 <__divsf3_pse+0x6c>
    1580:	86 95       	lsr	r24
    1582:	77 95       	ror	r23
    1584:	67 95       	ror	r22
    1586:	b7 95       	ror	r27
    1588:	f7 95       	ror	r31
    158a:	9f 5f       	subi	r25, 0xFF	; 255
    158c:	c9 f7       	brne	.-14     	; 0x1580 <__divsf3_pse+0x78>
    158e:	88 0f       	add	r24, r24
    1590:	91 1d       	adc	r25, r1
    1592:	96 95       	lsr	r25
    1594:	87 95       	ror	r24
    1596:	97 f9       	bld	r25, 7
    1598:	08 95       	ret
    159a:	e1 e0       	ldi	r30, 0x01	; 1
    159c:	66 0f       	add	r22, r22
    159e:	77 1f       	adc	r23, r23
    15a0:	88 1f       	adc	r24, r24
    15a2:	bb 1f       	adc	r27, r27
    15a4:	62 17       	cp	r22, r18
    15a6:	73 07       	cpc	r23, r19
    15a8:	84 07       	cpc	r24, r20
    15aa:	ba 07       	cpc	r27, r26
    15ac:	20 f0       	brcs	.+8      	; 0x15b6 <__divsf3_pse+0xae>
    15ae:	62 1b       	sub	r22, r18
    15b0:	73 0b       	sbc	r23, r19
    15b2:	84 0b       	sbc	r24, r20
    15b4:	ba 0b       	sbc	r27, r26
    15b6:	ee 1f       	adc	r30, r30
    15b8:	88 f7       	brcc	.-30     	; 0x159c <__divsf3_pse+0x94>
    15ba:	e0 95       	com	r30
    15bc:	08 95       	ret

000015be <__fixunssfsi>:
    15be:	0e 94 7b 0b 	call	0x16f6	; 0x16f6 <__fp_splitA>
    15c2:	88 f0       	brcs	.+34     	; 0x15e6 <__fixunssfsi+0x28>
    15c4:	9f 57       	subi	r25, 0x7F	; 127
    15c6:	98 f0       	brcs	.+38     	; 0x15ee <__fixunssfsi+0x30>
    15c8:	b9 2f       	mov	r27, r25
    15ca:	99 27       	eor	r25, r25
    15cc:	b7 51       	subi	r27, 0x17	; 23
    15ce:	b0 f0       	brcs	.+44     	; 0x15fc <__fixunssfsi+0x3e>
    15d0:	e1 f0       	breq	.+56     	; 0x160a <__fixunssfsi+0x4c>
    15d2:	66 0f       	add	r22, r22
    15d4:	77 1f       	adc	r23, r23
    15d6:	88 1f       	adc	r24, r24
    15d8:	99 1f       	adc	r25, r25
    15da:	1a f0       	brmi	.+6      	; 0x15e2 <__fixunssfsi+0x24>
    15dc:	ba 95       	dec	r27
    15de:	c9 f7       	brne	.-14     	; 0x15d2 <__fixunssfsi+0x14>
    15e0:	14 c0       	rjmp	.+40     	; 0x160a <__fixunssfsi+0x4c>
    15e2:	b1 30       	cpi	r27, 0x01	; 1
    15e4:	91 f0       	breq	.+36     	; 0x160a <__fixunssfsi+0x4c>
    15e6:	0e 94 95 0b 	call	0x172a	; 0x172a <__fp_zero>
    15ea:	b1 e0       	ldi	r27, 0x01	; 1
    15ec:	08 95       	ret
    15ee:	0c 94 95 0b 	jmp	0x172a	; 0x172a <__fp_zero>
    15f2:	67 2f       	mov	r22, r23
    15f4:	78 2f       	mov	r23, r24
    15f6:	88 27       	eor	r24, r24
    15f8:	b8 5f       	subi	r27, 0xF8	; 248
    15fa:	39 f0       	breq	.+14     	; 0x160a <__fixunssfsi+0x4c>
    15fc:	b9 3f       	cpi	r27, 0xF9	; 249
    15fe:	cc f3       	brlt	.-14     	; 0x15f2 <__fixunssfsi+0x34>
    1600:	86 95       	lsr	r24
    1602:	77 95       	ror	r23
    1604:	67 95       	ror	r22
    1606:	b3 95       	inc	r27
    1608:	d9 f7       	brne	.-10     	; 0x1600 <__fixunssfsi+0x42>
    160a:	3e f4       	brtc	.+14     	; 0x161a <__fixunssfsi+0x5c>
    160c:	90 95       	com	r25
    160e:	80 95       	com	r24
    1610:	70 95       	com	r23
    1612:	61 95       	neg	r22
    1614:	7f 4f       	sbci	r23, 0xFF	; 255
    1616:	8f 4f       	sbci	r24, 0xFF	; 255
    1618:	9f 4f       	sbci	r25, 0xFF	; 255
    161a:	08 95       	ret

0000161c <__floatunsisf>:
    161c:	e8 94       	clt
    161e:	09 c0       	rjmp	.+18     	; 0x1632 <__floatsisf+0x12>

00001620 <__floatsisf>:
    1620:	97 fb       	bst	r25, 7
    1622:	3e f4       	brtc	.+14     	; 0x1632 <__floatsisf+0x12>
    1624:	90 95       	com	r25
    1626:	80 95       	com	r24
    1628:	70 95       	com	r23
    162a:	61 95       	neg	r22
    162c:	7f 4f       	sbci	r23, 0xFF	; 255
    162e:	8f 4f       	sbci	r24, 0xFF	; 255
    1630:	9f 4f       	sbci	r25, 0xFF	; 255
    1632:	99 23       	and	r25, r25
    1634:	a9 f0       	breq	.+42     	; 0x1660 <__floatsisf+0x40>
    1636:	f9 2f       	mov	r31, r25
    1638:	96 e9       	ldi	r25, 0x96	; 150
    163a:	bb 27       	eor	r27, r27
    163c:	93 95       	inc	r25
    163e:	f6 95       	lsr	r31
    1640:	87 95       	ror	r24
    1642:	77 95       	ror	r23
    1644:	67 95       	ror	r22
    1646:	b7 95       	ror	r27
    1648:	f1 11       	cpse	r31, r1
    164a:	f8 cf       	rjmp	.-16     	; 0x163c <__floatsisf+0x1c>
    164c:	fa f4       	brpl	.+62     	; 0x168c <__floatsisf+0x6c>
    164e:	bb 0f       	add	r27, r27
    1650:	11 f4       	brne	.+4      	; 0x1656 <__floatsisf+0x36>
    1652:	60 ff       	sbrs	r22, 0
    1654:	1b c0       	rjmp	.+54     	; 0x168c <__floatsisf+0x6c>
    1656:	6f 5f       	subi	r22, 0xFF	; 255
    1658:	7f 4f       	sbci	r23, 0xFF	; 255
    165a:	8f 4f       	sbci	r24, 0xFF	; 255
    165c:	9f 4f       	sbci	r25, 0xFF	; 255
    165e:	16 c0       	rjmp	.+44     	; 0x168c <__floatsisf+0x6c>
    1660:	88 23       	and	r24, r24
    1662:	11 f0       	breq	.+4      	; 0x1668 <__floatsisf+0x48>
    1664:	96 e9       	ldi	r25, 0x96	; 150
    1666:	11 c0       	rjmp	.+34     	; 0x168a <__floatsisf+0x6a>
    1668:	77 23       	and	r23, r23
    166a:	21 f0       	breq	.+8      	; 0x1674 <__floatsisf+0x54>
    166c:	9e e8       	ldi	r25, 0x8E	; 142
    166e:	87 2f       	mov	r24, r23
    1670:	76 2f       	mov	r23, r22
    1672:	05 c0       	rjmp	.+10     	; 0x167e <__floatsisf+0x5e>
    1674:	66 23       	and	r22, r22
    1676:	71 f0       	breq	.+28     	; 0x1694 <__floatsisf+0x74>
    1678:	96 e8       	ldi	r25, 0x86	; 134
    167a:	86 2f       	mov	r24, r22
    167c:	70 e0       	ldi	r23, 0x00	; 0
    167e:	60 e0       	ldi	r22, 0x00	; 0
    1680:	2a f0       	brmi	.+10     	; 0x168c <__floatsisf+0x6c>
    1682:	9a 95       	dec	r25
    1684:	66 0f       	add	r22, r22
    1686:	77 1f       	adc	r23, r23
    1688:	88 1f       	adc	r24, r24
    168a:	da f7       	brpl	.-10     	; 0x1682 <__floatsisf+0x62>
    168c:	88 0f       	add	r24, r24
    168e:	96 95       	lsr	r25
    1690:	87 95       	ror	r24
    1692:	97 f9       	bld	r25, 7
    1694:	08 95       	ret

00001696 <__fp_inf>:
    1696:	97 f9       	bld	r25, 7
    1698:	9f 67       	ori	r25, 0x7F	; 127
    169a:	80 e8       	ldi	r24, 0x80	; 128
    169c:	70 e0       	ldi	r23, 0x00	; 0
    169e:	60 e0       	ldi	r22, 0x00	; 0
    16a0:	08 95       	ret

000016a2 <__fp_nan>:
    16a2:	9f ef       	ldi	r25, 0xFF	; 255
    16a4:	80 ec       	ldi	r24, 0xC0	; 192
    16a6:	08 95       	ret

000016a8 <__fp_pscA>:
    16a8:	00 24       	eor	r0, r0
    16aa:	0a 94       	dec	r0
    16ac:	16 16       	cp	r1, r22
    16ae:	17 06       	cpc	r1, r23
    16b0:	18 06       	cpc	r1, r24
    16b2:	09 06       	cpc	r0, r25
    16b4:	08 95       	ret

000016b6 <__fp_pscB>:
    16b6:	00 24       	eor	r0, r0
    16b8:	0a 94       	dec	r0
    16ba:	12 16       	cp	r1, r18
    16bc:	13 06       	cpc	r1, r19
    16be:	14 06       	cpc	r1, r20
    16c0:	05 06       	cpc	r0, r21
    16c2:	08 95       	ret

000016c4 <__fp_round>:
    16c4:	09 2e       	mov	r0, r25
    16c6:	03 94       	inc	r0
    16c8:	00 0c       	add	r0, r0
    16ca:	11 f4       	brne	.+4      	; 0x16d0 <__fp_round+0xc>
    16cc:	88 23       	and	r24, r24
    16ce:	52 f0       	brmi	.+20     	; 0x16e4 <__fp_round+0x20>
    16d0:	bb 0f       	add	r27, r27
    16d2:	40 f4       	brcc	.+16     	; 0x16e4 <__fp_round+0x20>
    16d4:	bf 2b       	or	r27, r31
    16d6:	11 f4       	brne	.+4      	; 0x16dc <__fp_round+0x18>
    16d8:	60 ff       	sbrs	r22, 0
    16da:	04 c0       	rjmp	.+8      	; 0x16e4 <__fp_round+0x20>
    16dc:	6f 5f       	subi	r22, 0xFF	; 255
    16de:	7f 4f       	sbci	r23, 0xFF	; 255
    16e0:	8f 4f       	sbci	r24, 0xFF	; 255
    16e2:	9f 4f       	sbci	r25, 0xFF	; 255
    16e4:	08 95       	ret

000016e6 <__fp_split3>:
    16e6:	57 fd       	sbrc	r21, 7
    16e8:	90 58       	subi	r25, 0x80	; 128
    16ea:	44 0f       	add	r20, r20
    16ec:	55 1f       	adc	r21, r21
    16ee:	59 f0       	breq	.+22     	; 0x1706 <__fp_splitA+0x10>
    16f0:	5f 3f       	cpi	r21, 0xFF	; 255
    16f2:	71 f0       	breq	.+28     	; 0x1710 <__fp_splitA+0x1a>
    16f4:	47 95       	ror	r20

000016f6 <__fp_splitA>:
    16f6:	88 0f       	add	r24, r24
    16f8:	97 fb       	bst	r25, 7
    16fa:	99 1f       	adc	r25, r25
    16fc:	61 f0       	breq	.+24     	; 0x1716 <__fp_splitA+0x20>
    16fe:	9f 3f       	cpi	r25, 0xFF	; 255
    1700:	79 f0       	breq	.+30     	; 0x1720 <__fp_splitA+0x2a>
    1702:	87 95       	ror	r24
    1704:	08 95       	ret
    1706:	12 16       	cp	r1, r18
    1708:	13 06       	cpc	r1, r19
    170a:	14 06       	cpc	r1, r20
    170c:	55 1f       	adc	r21, r21
    170e:	f2 cf       	rjmp	.-28     	; 0x16f4 <__fp_split3+0xe>
    1710:	46 95       	lsr	r20
    1712:	f1 df       	rcall	.-30     	; 0x16f6 <__fp_splitA>
    1714:	08 c0       	rjmp	.+16     	; 0x1726 <__fp_splitA+0x30>
    1716:	16 16       	cp	r1, r22
    1718:	17 06       	cpc	r1, r23
    171a:	18 06       	cpc	r1, r24
    171c:	99 1f       	adc	r25, r25
    171e:	f1 cf       	rjmp	.-30     	; 0x1702 <__fp_splitA+0xc>
    1720:	86 95       	lsr	r24
    1722:	71 05       	cpc	r23, r1
    1724:	61 05       	cpc	r22, r1
    1726:	08 94       	sec
    1728:	08 95       	ret

0000172a <__fp_zero>:
    172a:	e8 94       	clt

0000172c <__fp_szero>:
    172c:	bb 27       	eor	r27, r27
    172e:	66 27       	eor	r22, r22
    1730:	77 27       	eor	r23, r23
    1732:	cb 01       	movw	r24, r22
    1734:	97 f9       	bld	r25, 7
    1736:	08 95       	ret

00001738 <__udivmodsi4>:
    1738:	a1 e2       	ldi	r26, 0x21	; 33
    173a:	1a 2e       	mov	r1, r26
    173c:	aa 1b       	sub	r26, r26
    173e:	bb 1b       	sub	r27, r27
    1740:	fd 01       	movw	r30, r26
    1742:	0d c0       	rjmp	.+26     	; 0x175e <__udivmodsi4_ep>

00001744 <__udivmodsi4_loop>:
    1744:	aa 1f       	adc	r26, r26
    1746:	bb 1f       	adc	r27, r27
    1748:	ee 1f       	adc	r30, r30
    174a:	ff 1f       	adc	r31, r31
    174c:	a2 17       	cp	r26, r18
    174e:	b3 07       	cpc	r27, r19
    1750:	e4 07       	cpc	r30, r20
    1752:	f5 07       	cpc	r31, r21
    1754:	20 f0       	brcs	.+8      	; 0x175e <__udivmodsi4_ep>
    1756:	a2 1b       	sub	r26, r18
    1758:	b3 0b       	sbc	r27, r19
    175a:	e4 0b       	sbc	r30, r20
    175c:	f5 0b       	sbc	r31, r21

0000175e <__udivmodsi4_ep>:
    175e:	66 1f       	adc	r22, r22
    1760:	77 1f       	adc	r23, r23
    1762:	88 1f       	adc	r24, r24
    1764:	99 1f       	adc	r25, r25
    1766:	1a 94       	dec	r1
    1768:	69 f7       	brne	.-38     	; 0x1744 <__udivmodsi4_loop>
    176a:	60 95       	com	r22
    176c:	70 95       	com	r23
    176e:	80 95       	com	r24
    1770:	90 95       	com	r25
    1772:	9b 01       	movw	r18, r22
    1774:	ac 01       	movw	r20, r24
    1776:	bd 01       	movw	r22, r26
    1778:	cf 01       	movw	r24, r30
    177a:	08 95       	ret

0000177c <strcmp>:
    177c:	fb 01       	movw	r30, r22
    177e:	dc 01       	movw	r26, r24
    1780:	8d 91       	ld	r24, X+
    1782:	01 90       	ld	r0, Z+
    1784:	80 19       	sub	r24, r0
    1786:	01 10       	cpse	r0, r1
    1788:	d9 f3       	breq	.-10     	; 0x1780 <strcmp+0x4>
    178a:	99 0b       	sbc	r25, r25
    178c:	08 95       	ret

0000178e <strcpy>:
    178e:	fb 01       	movw	r30, r22
    1790:	dc 01       	movw	r26, r24
    1792:	01 90       	ld	r0, Z+
    1794:	0d 92       	st	X+, r0
    1796:	00 20       	and	r0, r0
    1798:	e1 f7       	brne	.-8      	; 0x1792 <strcpy+0x4>
    179a:	08 95       	ret

0000179c <sprintf>:
    179c:	ae e0       	ldi	r26, 0x0E	; 14
    179e:	b0 e0       	ldi	r27, 0x00	; 0
    17a0:	e4 ed       	ldi	r30, 0xD4	; 212
    17a2:	fb e0       	ldi	r31, 0x0B	; 11
    17a4:	0c 94 c3 11 	jmp	0x2386	; 0x2386 <__prologue_saves__+0x1c>
    17a8:	0d 89       	ldd	r16, Y+21	; 0x15
    17aa:	1e 89       	ldd	r17, Y+22	; 0x16
    17ac:	86 e0       	ldi	r24, 0x06	; 6
    17ae:	8c 83       	std	Y+4, r24	; 0x04
    17b0:	1a 83       	std	Y+2, r17	; 0x02
    17b2:	09 83       	std	Y+1, r16	; 0x01
    17b4:	8f ef       	ldi	r24, 0xFF	; 255
    17b6:	9f e7       	ldi	r25, 0x7F	; 127
    17b8:	9e 83       	std	Y+6, r25	; 0x06
    17ba:	8d 83       	std	Y+5, r24	; 0x05
    17bc:	ae 01       	movw	r20, r28
    17be:	47 5e       	subi	r20, 0xE7	; 231
    17c0:	5f 4f       	sbci	r21, 0xFF	; 255
    17c2:	6f 89       	ldd	r22, Y+23	; 0x17
    17c4:	78 8d       	ldd	r23, Y+24	; 0x18
    17c6:	ce 01       	movw	r24, r28
    17c8:	01 96       	adiw	r24, 0x01	; 1
    17ca:	0e 94 09 0c 	call	0x1812	; 0x1812 <vfprintf>
    17ce:	ef 81       	ldd	r30, Y+7	; 0x07
    17d0:	f8 85       	ldd	r31, Y+8	; 0x08
    17d2:	e0 0f       	add	r30, r16
    17d4:	f1 1f       	adc	r31, r17
    17d6:	10 82       	st	Z, r1
    17d8:	2e 96       	adiw	r28, 0x0e	; 14
    17da:	e4 e0       	ldi	r30, 0x04	; 4
    17dc:	0c 94 df 11 	jmp	0x23be	; 0x23be <__epilogue_restores__+0x1c>

000017e0 <sscanf>:
    17e0:	ae e0       	ldi	r26, 0x0E	; 14
    17e2:	b0 e0       	ldi	r27, 0x00	; 0
    17e4:	e6 ef       	ldi	r30, 0xF6	; 246
    17e6:	fb e0       	ldi	r31, 0x0B	; 11
    17e8:	0c 94 c5 11 	jmp	0x238a	; 0x238a <__prologue_saves__+0x20>
    17ec:	85 e0       	ldi	r24, 0x05	; 5
    17ee:	8c 83       	std	Y+4, r24	; 0x04
    17f0:	8b 89       	ldd	r24, Y+19	; 0x13
    17f2:	9c 89       	ldd	r25, Y+20	; 0x14
    17f4:	9a 83       	std	Y+2, r25	; 0x02
    17f6:	89 83       	std	Y+1, r24	; 0x01
    17f8:	ae 01       	movw	r20, r28
    17fa:	49 5e       	subi	r20, 0xE9	; 233
    17fc:	5f 4f       	sbci	r21, 0xFF	; 255
    17fe:	6d 89       	ldd	r22, Y+21	; 0x15
    1800:	7e 89       	ldd	r23, Y+22	; 0x16
    1802:	ce 01       	movw	r24, r28
    1804:	01 96       	adiw	r24, 0x01	; 1
    1806:	0e 94 86 0f 	call	0x1f0c	; 0x1f0c <vfscanf>
    180a:	2e 96       	adiw	r28, 0x0e	; 14
    180c:	e2 e0       	ldi	r30, 0x02	; 2
    180e:	0c 94 e1 11 	jmp	0x23c2	; 0x23c2 <__epilogue_restores__+0x20>

00001812 <vfprintf>:
    1812:	ab e0       	ldi	r26, 0x0B	; 11
    1814:	b0 e0       	ldi	r27, 0x00	; 0
    1816:	ef e0       	ldi	r30, 0x0F	; 15
    1818:	fc e0       	ldi	r31, 0x0C	; 12
    181a:	0c 94 b5 11 	jmp	0x236a	; 0x236a <__prologue_saves__>
    181e:	6c 01       	movw	r12, r24
    1820:	7b 01       	movw	r14, r22
    1822:	8a 01       	movw	r16, r20
    1824:	fc 01       	movw	r30, r24
    1826:	17 82       	std	Z+7, r1	; 0x07
    1828:	16 82       	std	Z+6, r1	; 0x06
    182a:	83 81       	ldd	r24, Z+3	; 0x03
    182c:	81 ff       	sbrs	r24, 1
    182e:	cc c1       	rjmp	.+920    	; 0x1bc8 <vfprintf+0x3b6>
    1830:	ce 01       	movw	r24, r28
    1832:	01 96       	adiw	r24, 0x01	; 1
    1834:	3c 01       	movw	r6, r24
    1836:	f6 01       	movw	r30, r12
    1838:	93 81       	ldd	r25, Z+3	; 0x03
    183a:	f7 01       	movw	r30, r14
    183c:	93 fd       	sbrc	r25, 3
    183e:	85 91       	lpm	r24, Z+
    1840:	93 ff       	sbrs	r25, 3
    1842:	81 91       	ld	r24, Z+
    1844:	7f 01       	movw	r14, r30
    1846:	88 23       	and	r24, r24
    1848:	09 f4       	brne	.+2      	; 0x184c <vfprintf+0x3a>
    184a:	ba c1       	rjmp	.+884    	; 0x1bc0 <vfprintf+0x3ae>
    184c:	85 32       	cpi	r24, 0x25	; 37
    184e:	39 f4       	brne	.+14     	; 0x185e <vfprintf+0x4c>
    1850:	93 fd       	sbrc	r25, 3
    1852:	85 91       	lpm	r24, Z+
    1854:	93 ff       	sbrs	r25, 3
    1856:	81 91       	ld	r24, Z+
    1858:	7f 01       	movw	r14, r30
    185a:	85 32       	cpi	r24, 0x25	; 37
    185c:	29 f4       	brne	.+10     	; 0x1868 <vfprintf+0x56>
    185e:	b6 01       	movw	r22, r12
    1860:	90 e0       	ldi	r25, 0x00	; 0
    1862:	0e 94 ff 10 	call	0x21fe	; 0x21fe <fputc>
    1866:	e7 cf       	rjmp	.-50     	; 0x1836 <vfprintf+0x24>
    1868:	91 2c       	mov	r9, r1
    186a:	21 2c       	mov	r2, r1
    186c:	31 2c       	mov	r3, r1
    186e:	ff e1       	ldi	r31, 0x1F	; 31
    1870:	f3 15       	cp	r31, r3
    1872:	d8 f0       	brcs	.+54     	; 0x18aa <vfprintf+0x98>
    1874:	8b 32       	cpi	r24, 0x2B	; 43
    1876:	79 f0       	breq	.+30     	; 0x1896 <vfprintf+0x84>
    1878:	38 f4       	brcc	.+14     	; 0x1888 <vfprintf+0x76>
    187a:	80 32       	cpi	r24, 0x20	; 32
    187c:	79 f0       	breq	.+30     	; 0x189c <vfprintf+0x8a>
    187e:	83 32       	cpi	r24, 0x23	; 35
    1880:	a1 f4       	brne	.+40     	; 0x18aa <vfprintf+0x98>
    1882:	23 2d       	mov	r18, r3
    1884:	20 61       	ori	r18, 0x10	; 16
    1886:	1d c0       	rjmp	.+58     	; 0x18c2 <vfprintf+0xb0>
    1888:	8d 32       	cpi	r24, 0x2D	; 45
    188a:	61 f0       	breq	.+24     	; 0x18a4 <vfprintf+0x92>
    188c:	80 33       	cpi	r24, 0x30	; 48
    188e:	69 f4       	brne	.+26     	; 0x18aa <vfprintf+0x98>
    1890:	23 2d       	mov	r18, r3
    1892:	21 60       	ori	r18, 0x01	; 1
    1894:	16 c0       	rjmp	.+44     	; 0x18c2 <vfprintf+0xb0>
    1896:	83 2d       	mov	r24, r3
    1898:	82 60       	ori	r24, 0x02	; 2
    189a:	38 2e       	mov	r3, r24
    189c:	e3 2d       	mov	r30, r3
    189e:	e4 60       	ori	r30, 0x04	; 4
    18a0:	3e 2e       	mov	r3, r30
    18a2:	2a c0       	rjmp	.+84     	; 0x18f8 <vfprintf+0xe6>
    18a4:	f3 2d       	mov	r31, r3
    18a6:	f8 60       	ori	r31, 0x08	; 8
    18a8:	1d c0       	rjmp	.+58     	; 0x18e4 <vfprintf+0xd2>
    18aa:	37 fc       	sbrc	r3, 7
    18ac:	2d c0       	rjmp	.+90     	; 0x1908 <vfprintf+0xf6>
    18ae:	20 ed       	ldi	r18, 0xD0	; 208
    18b0:	28 0f       	add	r18, r24
    18b2:	2a 30       	cpi	r18, 0x0A	; 10
    18b4:	40 f0       	brcs	.+16     	; 0x18c6 <vfprintf+0xb4>
    18b6:	8e 32       	cpi	r24, 0x2E	; 46
    18b8:	b9 f4       	brne	.+46     	; 0x18e8 <vfprintf+0xd6>
    18ba:	36 fc       	sbrc	r3, 6
    18bc:	81 c1       	rjmp	.+770    	; 0x1bc0 <vfprintf+0x3ae>
    18be:	23 2d       	mov	r18, r3
    18c0:	20 64       	ori	r18, 0x40	; 64
    18c2:	32 2e       	mov	r3, r18
    18c4:	19 c0       	rjmp	.+50     	; 0x18f8 <vfprintf+0xe6>
    18c6:	36 fe       	sbrs	r3, 6
    18c8:	06 c0       	rjmp	.+12     	; 0x18d6 <vfprintf+0xc4>
    18ca:	8a e0       	ldi	r24, 0x0A	; 10
    18cc:	98 9e       	mul	r9, r24
    18ce:	20 0d       	add	r18, r0
    18d0:	11 24       	eor	r1, r1
    18d2:	92 2e       	mov	r9, r18
    18d4:	11 c0       	rjmp	.+34     	; 0x18f8 <vfprintf+0xe6>
    18d6:	ea e0       	ldi	r30, 0x0A	; 10
    18d8:	2e 9e       	mul	r2, r30
    18da:	20 0d       	add	r18, r0
    18dc:	11 24       	eor	r1, r1
    18de:	22 2e       	mov	r2, r18
    18e0:	f3 2d       	mov	r31, r3
    18e2:	f0 62       	ori	r31, 0x20	; 32
    18e4:	3f 2e       	mov	r3, r31
    18e6:	08 c0       	rjmp	.+16     	; 0x18f8 <vfprintf+0xe6>
    18e8:	8c 36       	cpi	r24, 0x6C	; 108
    18ea:	21 f4       	brne	.+8      	; 0x18f4 <vfprintf+0xe2>
    18ec:	83 2d       	mov	r24, r3
    18ee:	80 68       	ori	r24, 0x80	; 128
    18f0:	38 2e       	mov	r3, r24
    18f2:	02 c0       	rjmp	.+4      	; 0x18f8 <vfprintf+0xe6>
    18f4:	88 36       	cpi	r24, 0x68	; 104
    18f6:	41 f4       	brne	.+16     	; 0x1908 <vfprintf+0xf6>
    18f8:	f7 01       	movw	r30, r14
    18fa:	93 fd       	sbrc	r25, 3
    18fc:	85 91       	lpm	r24, Z+
    18fe:	93 ff       	sbrs	r25, 3
    1900:	81 91       	ld	r24, Z+
    1902:	7f 01       	movw	r14, r30
    1904:	81 11       	cpse	r24, r1
    1906:	b3 cf       	rjmp	.-154    	; 0x186e <vfprintf+0x5c>
    1908:	98 2f       	mov	r25, r24
    190a:	9f 7d       	andi	r25, 0xDF	; 223
    190c:	95 54       	subi	r25, 0x45	; 69
    190e:	93 30       	cpi	r25, 0x03	; 3
    1910:	28 f4       	brcc	.+10     	; 0x191c <vfprintf+0x10a>
    1912:	0c 5f       	subi	r16, 0xFC	; 252
    1914:	1f 4f       	sbci	r17, 0xFF	; 255
    1916:	9f e3       	ldi	r25, 0x3F	; 63
    1918:	99 83       	std	Y+1, r25	; 0x01
    191a:	0d c0       	rjmp	.+26     	; 0x1936 <vfprintf+0x124>
    191c:	83 36       	cpi	r24, 0x63	; 99
    191e:	31 f0       	breq	.+12     	; 0x192c <vfprintf+0x11a>
    1920:	83 37       	cpi	r24, 0x73	; 115
    1922:	71 f0       	breq	.+28     	; 0x1940 <vfprintf+0x12e>
    1924:	83 35       	cpi	r24, 0x53	; 83
    1926:	09 f0       	breq	.+2      	; 0x192a <vfprintf+0x118>
    1928:	59 c0       	rjmp	.+178    	; 0x19dc <vfprintf+0x1ca>
    192a:	21 c0       	rjmp	.+66     	; 0x196e <vfprintf+0x15c>
    192c:	f8 01       	movw	r30, r16
    192e:	80 81       	ld	r24, Z
    1930:	89 83       	std	Y+1, r24	; 0x01
    1932:	0e 5f       	subi	r16, 0xFE	; 254
    1934:	1f 4f       	sbci	r17, 0xFF	; 255
    1936:	88 24       	eor	r8, r8
    1938:	83 94       	inc	r8
    193a:	91 2c       	mov	r9, r1
    193c:	53 01       	movw	r10, r6
    193e:	13 c0       	rjmp	.+38     	; 0x1966 <vfprintf+0x154>
    1940:	28 01       	movw	r4, r16
    1942:	f2 e0       	ldi	r31, 0x02	; 2
    1944:	4f 0e       	add	r4, r31
    1946:	51 1c       	adc	r5, r1
    1948:	f8 01       	movw	r30, r16
    194a:	a0 80       	ld	r10, Z
    194c:	b1 80       	ldd	r11, Z+1	; 0x01
    194e:	36 fe       	sbrs	r3, 6
    1950:	03 c0       	rjmp	.+6      	; 0x1958 <vfprintf+0x146>
    1952:	69 2d       	mov	r22, r9
    1954:	70 e0       	ldi	r23, 0x00	; 0
    1956:	02 c0       	rjmp	.+4      	; 0x195c <vfprintf+0x14a>
    1958:	6f ef       	ldi	r22, 0xFF	; 255
    195a:	7f ef       	ldi	r23, 0xFF	; 255
    195c:	c5 01       	movw	r24, r10
    195e:	0e 94 b6 10 	call	0x216c	; 0x216c <strnlen>
    1962:	4c 01       	movw	r8, r24
    1964:	82 01       	movw	r16, r4
    1966:	f3 2d       	mov	r31, r3
    1968:	ff 77       	andi	r31, 0x7F	; 127
    196a:	3f 2e       	mov	r3, r31
    196c:	16 c0       	rjmp	.+44     	; 0x199a <vfprintf+0x188>
    196e:	28 01       	movw	r4, r16
    1970:	22 e0       	ldi	r18, 0x02	; 2
    1972:	42 0e       	add	r4, r18
    1974:	51 1c       	adc	r5, r1
    1976:	f8 01       	movw	r30, r16
    1978:	a0 80       	ld	r10, Z
    197a:	b1 80       	ldd	r11, Z+1	; 0x01
    197c:	36 fe       	sbrs	r3, 6
    197e:	03 c0       	rjmp	.+6      	; 0x1986 <vfprintf+0x174>
    1980:	69 2d       	mov	r22, r9
    1982:	70 e0       	ldi	r23, 0x00	; 0
    1984:	02 c0       	rjmp	.+4      	; 0x198a <vfprintf+0x178>
    1986:	6f ef       	ldi	r22, 0xFF	; 255
    1988:	7f ef       	ldi	r23, 0xFF	; 255
    198a:	c5 01       	movw	r24, r10
    198c:	0e 94 ab 10 	call	0x2156	; 0x2156 <strnlen_P>
    1990:	4c 01       	movw	r8, r24
    1992:	f3 2d       	mov	r31, r3
    1994:	f0 68       	ori	r31, 0x80	; 128
    1996:	3f 2e       	mov	r3, r31
    1998:	82 01       	movw	r16, r4
    199a:	33 fc       	sbrc	r3, 3
    199c:	1b c0       	rjmp	.+54     	; 0x19d4 <vfprintf+0x1c2>
    199e:	82 2d       	mov	r24, r2
    19a0:	90 e0       	ldi	r25, 0x00	; 0
    19a2:	88 16       	cp	r8, r24
    19a4:	99 06       	cpc	r9, r25
    19a6:	b0 f4       	brcc	.+44     	; 0x19d4 <vfprintf+0x1c2>
    19a8:	b6 01       	movw	r22, r12
    19aa:	80 e2       	ldi	r24, 0x20	; 32
    19ac:	90 e0       	ldi	r25, 0x00	; 0
    19ae:	0e 94 ff 10 	call	0x21fe	; 0x21fe <fputc>
    19b2:	2a 94       	dec	r2
    19b4:	f4 cf       	rjmp	.-24     	; 0x199e <vfprintf+0x18c>
    19b6:	f5 01       	movw	r30, r10
    19b8:	37 fc       	sbrc	r3, 7
    19ba:	85 91       	lpm	r24, Z+
    19bc:	37 fe       	sbrs	r3, 7
    19be:	81 91       	ld	r24, Z+
    19c0:	5f 01       	movw	r10, r30
    19c2:	b6 01       	movw	r22, r12
    19c4:	90 e0       	ldi	r25, 0x00	; 0
    19c6:	0e 94 ff 10 	call	0x21fe	; 0x21fe <fputc>
    19ca:	21 10       	cpse	r2, r1
    19cc:	2a 94       	dec	r2
    19ce:	21 e0       	ldi	r18, 0x01	; 1
    19d0:	82 1a       	sub	r8, r18
    19d2:	91 08       	sbc	r9, r1
    19d4:	81 14       	cp	r8, r1
    19d6:	91 04       	cpc	r9, r1
    19d8:	71 f7       	brne	.-36     	; 0x19b6 <vfprintf+0x1a4>
    19da:	e8 c0       	rjmp	.+464    	; 0x1bac <vfprintf+0x39a>
    19dc:	84 36       	cpi	r24, 0x64	; 100
    19de:	11 f0       	breq	.+4      	; 0x19e4 <vfprintf+0x1d2>
    19e0:	89 36       	cpi	r24, 0x69	; 105
    19e2:	41 f5       	brne	.+80     	; 0x1a34 <vfprintf+0x222>
    19e4:	f8 01       	movw	r30, r16
    19e6:	37 fe       	sbrs	r3, 7
    19e8:	07 c0       	rjmp	.+14     	; 0x19f8 <vfprintf+0x1e6>
    19ea:	60 81       	ld	r22, Z
    19ec:	71 81       	ldd	r23, Z+1	; 0x01
    19ee:	82 81       	ldd	r24, Z+2	; 0x02
    19f0:	93 81       	ldd	r25, Z+3	; 0x03
    19f2:	0c 5f       	subi	r16, 0xFC	; 252
    19f4:	1f 4f       	sbci	r17, 0xFF	; 255
    19f6:	08 c0       	rjmp	.+16     	; 0x1a08 <vfprintf+0x1f6>
    19f8:	60 81       	ld	r22, Z
    19fa:	71 81       	ldd	r23, Z+1	; 0x01
    19fc:	07 2e       	mov	r0, r23
    19fe:	00 0c       	add	r0, r0
    1a00:	88 0b       	sbc	r24, r24
    1a02:	99 0b       	sbc	r25, r25
    1a04:	0e 5f       	subi	r16, 0xFE	; 254
    1a06:	1f 4f       	sbci	r17, 0xFF	; 255
    1a08:	f3 2d       	mov	r31, r3
    1a0a:	ff 76       	andi	r31, 0x6F	; 111
    1a0c:	3f 2e       	mov	r3, r31
    1a0e:	97 ff       	sbrs	r25, 7
    1a10:	09 c0       	rjmp	.+18     	; 0x1a24 <vfprintf+0x212>
    1a12:	90 95       	com	r25
    1a14:	80 95       	com	r24
    1a16:	70 95       	com	r23
    1a18:	61 95       	neg	r22
    1a1a:	7f 4f       	sbci	r23, 0xFF	; 255
    1a1c:	8f 4f       	sbci	r24, 0xFF	; 255
    1a1e:	9f 4f       	sbci	r25, 0xFF	; 255
    1a20:	f0 68       	ori	r31, 0x80	; 128
    1a22:	3f 2e       	mov	r3, r31
    1a24:	2a e0       	ldi	r18, 0x0A	; 10
    1a26:	30 e0       	ldi	r19, 0x00	; 0
    1a28:	a3 01       	movw	r20, r6
    1a2a:	0e 94 54 11 	call	0x22a8	; 0x22a8 <__ultoa_invert>
    1a2e:	88 2e       	mov	r8, r24
    1a30:	86 18       	sub	r8, r6
    1a32:	45 c0       	rjmp	.+138    	; 0x1abe <vfprintf+0x2ac>
    1a34:	85 37       	cpi	r24, 0x75	; 117
    1a36:	31 f4       	brne	.+12     	; 0x1a44 <vfprintf+0x232>
    1a38:	23 2d       	mov	r18, r3
    1a3a:	2f 7e       	andi	r18, 0xEF	; 239
    1a3c:	b2 2e       	mov	r11, r18
    1a3e:	2a e0       	ldi	r18, 0x0A	; 10
    1a40:	30 e0       	ldi	r19, 0x00	; 0
    1a42:	25 c0       	rjmp	.+74     	; 0x1a8e <vfprintf+0x27c>
    1a44:	93 2d       	mov	r25, r3
    1a46:	99 7f       	andi	r25, 0xF9	; 249
    1a48:	b9 2e       	mov	r11, r25
    1a4a:	8f 36       	cpi	r24, 0x6F	; 111
    1a4c:	c1 f0       	breq	.+48     	; 0x1a7e <vfprintf+0x26c>
    1a4e:	18 f4       	brcc	.+6      	; 0x1a56 <vfprintf+0x244>
    1a50:	88 35       	cpi	r24, 0x58	; 88
    1a52:	79 f0       	breq	.+30     	; 0x1a72 <vfprintf+0x260>
    1a54:	b5 c0       	rjmp	.+362    	; 0x1bc0 <vfprintf+0x3ae>
    1a56:	80 37       	cpi	r24, 0x70	; 112
    1a58:	19 f0       	breq	.+6      	; 0x1a60 <vfprintf+0x24e>
    1a5a:	88 37       	cpi	r24, 0x78	; 120
    1a5c:	21 f0       	breq	.+8      	; 0x1a66 <vfprintf+0x254>
    1a5e:	b0 c0       	rjmp	.+352    	; 0x1bc0 <vfprintf+0x3ae>
    1a60:	e9 2f       	mov	r30, r25
    1a62:	e0 61       	ori	r30, 0x10	; 16
    1a64:	be 2e       	mov	r11, r30
    1a66:	b4 fe       	sbrs	r11, 4
    1a68:	0d c0       	rjmp	.+26     	; 0x1a84 <vfprintf+0x272>
    1a6a:	fb 2d       	mov	r31, r11
    1a6c:	f4 60       	ori	r31, 0x04	; 4
    1a6e:	bf 2e       	mov	r11, r31
    1a70:	09 c0       	rjmp	.+18     	; 0x1a84 <vfprintf+0x272>
    1a72:	34 fe       	sbrs	r3, 4
    1a74:	0a c0       	rjmp	.+20     	; 0x1a8a <vfprintf+0x278>
    1a76:	29 2f       	mov	r18, r25
    1a78:	26 60       	ori	r18, 0x06	; 6
    1a7a:	b2 2e       	mov	r11, r18
    1a7c:	06 c0       	rjmp	.+12     	; 0x1a8a <vfprintf+0x278>
    1a7e:	28 e0       	ldi	r18, 0x08	; 8
    1a80:	30 e0       	ldi	r19, 0x00	; 0
    1a82:	05 c0       	rjmp	.+10     	; 0x1a8e <vfprintf+0x27c>
    1a84:	20 e1       	ldi	r18, 0x10	; 16
    1a86:	30 e0       	ldi	r19, 0x00	; 0
    1a88:	02 c0       	rjmp	.+4      	; 0x1a8e <vfprintf+0x27c>
    1a8a:	20 e1       	ldi	r18, 0x10	; 16
    1a8c:	32 e0       	ldi	r19, 0x02	; 2
    1a8e:	f8 01       	movw	r30, r16
    1a90:	b7 fe       	sbrs	r11, 7
    1a92:	07 c0       	rjmp	.+14     	; 0x1aa2 <vfprintf+0x290>
    1a94:	60 81       	ld	r22, Z
    1a96:	71 81       	ldd	r23, Z+1	; 0x01
    1a98:	82 81       	ldd	r24, Z+2	; 0x02
    1a9a:	93 81       	ldd	r25, Z+3	; 0x03
    1a9c:	0c 5f       	subi	r16, 0xFC	; 252
    1a9e:	1f 4f       	sbci	r17, 0xFF	; 255
    1aa0:	06 c0       	rjmp	.+12     	; 0x1aae <vfprintf+0x29c>
    1aa2:	60 81       	ld	r22, Z
    1aa4:	71 81       	ldd	r23, Z+1	; 0x01
    1aa6:	80 e0       	ldi	r24, 0x00	; 0
    1aa8:	90 e0       	ldi	r25, 0x00	; 0
    1aaa:	0e 5f       	subi	r16, 0xFE	; 254
    1aac:	1f 4f       	sbci	r17, 0xFF	; 255
    1aae:	a3 01       	movw	r20, r6
    1ab0:	0e 94 54 11 	call	0x22a8	; 0x22a8 <__ultoa_invert>
    1ab4:	88 2e       	mov	r8, r24
    1ab6:	86 18       	sub	r8, r6
    1ab8:	fb 2d       	mov	r31, r11
    1aba:	ff 77       	andi	r31, 0x7F	; 127
    1abc:	3f 2e       	mov	r3, r31
    1abe:	36 fe       	sbrs	r3, 6
    1ac0:	0d c0       	rjmp	.+26     	; 0x1adc <vfprintf+0x2ca>
    1ac2:	23 2d       	mov	r18, r3
    1ac4:	2e 7f       	andi	r18, 0xFE	; 254
    1ac6:	a2 2e       	mov	r10, r18
    1ac8:	89 14       	cp	r8, r9
    1aca:	58 f4       	brcc	.+22     	; 0x1ae2 <vfprintf+0x2d0>
    1acc:	34 fe       	sbrs	r3, 4
    1ace:	0b c0       	rjmp	.+22     	; 0x1ae6 <vfprintf+0x2d4>
    1ad0:	32 fc       	sbrc	r3, 2
    1ad2:	09 c0       	rjmp	.+18     	; 0x1ae6 <vfprintf+0x2d4>
    1ad4:	83 2d       	mov	r24, r3
    1ad6:	8e 7e       	andi	r24, 0xEE	; 238
    1ad8:	a8 2e       	mov	r10, r24
    1ada:	05 c0       	rjmp	.+10     	; 0x1ae6 <vfprintf+0x2d4>
    1adc:	b8 2c       	mov	r11, r8
    1ade:	a3 2c       	mov	r10, r3
    1ae0:	03 c0       	rjmp	.+6      	; 0x1ae8 <vfprintf+0x2d6>
    1ae2:	b8 2c       	mov	r11, r8
    1ae4:	01 c0       	rjmp	.+2      	; 0x1ae8 <vfprintf+0x2d6>
    1ae6:	b9 2c       	mov	r11, r9
    1ae8:	a4 fe       	sbrs	r10, 4
    1aea:	0f c0       	rjmp	.+30     	; 0x1b0a <vfprintf+0x2f8>
    1aec:	fe 01       	movw	r30, r28
    1aee:	e8 0d       	add	r30, r8
    1af0:	f1 1d       	adc	r31, r1
    1af2:	80 81       	ld	r24, Z
    1af4:	80 33       	cpi	r24, 0x30	; 48
    1af6:	21 f4       	brne	.+8      	; 0x1b00 <vfprintf+0x2ee>
    1af8:	9a 2d       	mov	r25, r10
    1afa:	99 7e       	andi	r25, 0xE9	; 233
    1afc:	a9 2e       	mov	r10, r25
    1afe:	09 c0       	rjmp	.+18     	; 0x1b12 <vfprintf+0x300>
    1b00:	a2 fe       	sbrs	r10, 2
    1b02:	06 c0       	rjmp	.+12     	; 0x1b10 <vfprintf+0x2fe>
    1b04:	b3 94       	inc	r11
    1b06:	b3 94       	inc	r11
    1b08:	04 c0       	rjmp	.+8      	; 0x1b12 <vfprintf+0x300>
    1b0a:	8a 2d       	mov	r24, r10
    1b0c:	86 78       	andi	r24, 0x86	; 134
    1b0e:	09 f0       	breq	.+2      	; 0x1b12 <vfprintf+0x300>
    1b10:	b3 94       	inc	r11
    1b12:	a3 fc       	sbrc	r10, 3
    1b14:	11 c0       	rjmp	.+34     	; 0x1b38 <vfprintf+0x326>
    1b16:	a0 fe       	sbrs	r10, 0
    1b18:	06 c0       	rjmp	.+12     	; 0x1b26 <vfprintf+0x314>
    1b1a:	b2 14       	cp	r11, r2
    1b1c:	88 f4       	brcc	.+34     	; 0x1b40 <vfprintf+0x32e>
    1b1e:	28 0c       	add	r2, r8
    1b20:	92 2c       	mov	r9, r2
    1b22:	9b 18       	sub	r9, r11
    1b24:	0e c0       	rjmp	.+28     	; 0x1b42 <vfprintf+0x330>
    1b26:	b2 14       	cp	r11, r2
    1b28:	60 f4       	brcc	.+24     	; 0x1b42 <vfprintf+0x330>
    1b2a:	b6 01       	movw	r22, r12
    1b2c:	80 e2       	ldi	r24, 0x20	; 32
    1b2e:	90 e0       	ldi	r25, 0x00	; 0
    1b30:	0e 94 ff 10 	call	0x21fe	; 0x21fe <fputc>
    1b34:	b3 94       	inc	r11
    1b36:	f7 cf       	rjmp	.-18     	; 0x1b26 <vfprintf+0x314>
    1b38:	b2 14       	cp	r11, r2
    1b3a:	18 f4       	brcc	.+6      	; 0x1b42 <vfprintf+0x330>
    1b3c:	2b 18       	sub	r2, r11
    1b3e:	02 c0       	rjmp	.+4      	; 0x1b44 <vfprintf+0x332>
    1b40:	98 2c       	mov	r9, r8
    1b42:	21 2c       	mov	r2, r1
    1b44:	a4 fe       	sbrs	r10, 4
    1b46:	10 c0       	rjmp	.+32     	; 0x1b68 <vfprintf+0x356>
    1b48:	b6 01       	movw	r22, r12
    1b4a:	80 e3       	ldi	r24, 0x30	; 48
    1b4c:	90 e0       	ldi	r25, 0x00	; 0
    1b4e:	0e 94 ff 10 	call	0x21fe	; 0x21fe <fputc>
    1b52:	a2 fe       	sbrs	r10, 2
    1b54:	17 c0       	rjmp	.+46     	; 0x1b84 <vfprintf+0x372>
    1b56:	a1 fc       	sbrc	r10, 1
    1b58:	03 c0       	rjmp	.+6      	; 0x1b60 <vfprintf+0x34e>
    1b5a:	88 e7       	ldi	r24, 0x78	; 120
    1b5c:	90 e0       	ldi	r25, 0x00	; 0
    1b5e:	02 c0       	rjmp	.+4      	; 0x1b64 <vfprintf+0x352>
    1b60:	88 e5       	ldi	r24, 0x58	; 88
    1b62:	90 e0       	ldi	r25, 0x00	; 0
    1b64:	b6 01       	movw	r22, r12
    1b66:	0c c0       	rjmp	.+24     	; 0x1b80 <vfprintf+0x36e>
    1b68:	8a 2d       	mov	r24, r10
    1b6a:	86 78       	andi	r24, 0x86	; 134
    1b6c:	59 f0       	breq	.+22     	; 0x1b84 <vfprintf+0x372>
    1b6e:	a1 fe       	sbrs	r10, 1
    1b70:	02 c0       	rjmp	.+4      	; 0x1b76 <vfprintf+0x364>
    1b72:	8b e2       	ldi	r24, 0x2B	; 43
    1b74:	01 c0       	rjmp	.+2      	; 0x1b78 <vfprintf+0x366>
    1b76:	80 e2       	ldi	r24, 0x20	; 32
    1b78:	a7 fc       	sbrc	r10, 7
    1b7a:	8d e2       	ldi	r24, 0x2D	; 45
    1b7c:	b6 01       	movw	r22, r12
    1b7e:	90 e0       	ldi	r25, 0x00	; 0
    1b80:	0e 94 ff 10 	call	0x21fe	; 0x21fe <fputc>
    1b84:	89 14       	cp	r8, r9
    1b86:	38 f4       	brcc	.+14     	; 0x1b96 <vfprintf+0x384>
    1b88:	b6 01       	movw	r22, r12
    1b8a:	80 e3       	ldi	r24, 0x30	; 48
    1b8c:	90 e0       	ldi	r25, 0x00	; 0
    1b8e:	0e 94 ff 10 	call	0x21fe	; 0x21fe <fputc>
    1b92:	9a 94       	dec	r9
    1b94:	f7 cf       	rjmp	.-18     	; 0x1b84 <vfprintf+0x372>
    1b96:	8a 94       	dec	r8
    1b98:	f3 01       	movw	r30, r6
    1b9a:	e8 0d       	add	r30, r8
    1b9c:	f1 1d       	adc	r31, r1
    1b9e:	80 81       	ld	r24, Z
    1ba0:	b6 01       	movw	r22, r12
    1ba2:	90 e0       	ldi	r25, 0x00	; 0
    1ba4:	0e 94 ff 10 	call	0x21fe	; 0x21fe <fputc>
    1ba8:	81 10       	cpse	r8, r1
    1baa:	f5 cf       	rjmp	.-22     	; 0x1b96 <vfprintf+0x384>
    1bac:	22 20       	and	r2, r2
    1bae:	09 f4       	brne	.+2      	; 0x1bb2 <vfprintf+0x3a0>
    1bb0:	42 ce       	rjmp	.-892    	; 0x1836 <vfprintf+0x24>
    1bb2:	b6 01       	movw	r22, r12
    1bb4:	80 e2       	ldi	r24, 0x20	; 32
    1bb6:	90 e0       	ldi	r25, 0x00	; 0
    1bb8:	0e 94 ff 10 	call	0x21fe	; 0x21fe <fputc>
    1bbc:	2a 94       	dec	r2
    1bbe:	f6 cf       	rjmp	.-20     	; 0x1bac <vfprintf+0x39a>
    1bc0:	f6 01       	movw	r30, r12
    1bc2:	86 81       	ldd	r24, Z+6	; 0x06
    1bc4:	97 81       	ldd	r25, Z+7	; 0x07
    1bc6:	02 c0       	rjmp	.+4      	; 0x1bcc <vfprintf+0x3ba>
    1bc8:	8f ef       	ldi	r24, 0xFF	; 255
    1bca:	9f ef       	ldi	r25, 0xFF	; 255
    1bcc:	2b 96       	adiw	r28, 0x0b	; 11
    1bce:	e2 e1       	ldi	r30, 0x12	; 18
    1bd0:	0c 94 d1 11 	jmp	0x23a2	; 0x23a2 <__epilogue_restores__>

00001bd4 <putval>:
    1bd4:	20 fd       	sbrc	r18, 0
    1bd6:	09 c0       	rjmp	.+18     	; 0x1bea <putval+0x16>
    1bd8:	fc 01       	movw	r30, r24
    1bda:	23 fd       	sbrc	r18, 3
    1bdc:	05 c0       	rjmp	.+10     	; 0x1be8 <putval+0x14>
    1bde:	22 ff       	sbrs	r18, 2
    1be0:	02 c0       	rjmp	.+4      	; 0x1be6 <putval+0x12>
    1be2:	73 83       	std	Z+3, r23	; 0x03
    1be4:	62 83       	std	Z+2, r22	; 0x02
    1be6:	51 83       	std	Z+1, r21	; 0x01
    1be8:	40 83       	st	Z, r20
    1bea:	08 95       	ret

00001bec <mulacc>:
    1bec:	44 fd       	sbrc	r20, 4
    1bee:	17 c0       	rjmp	.+46     	; 0x1c1e <mulacc+0x32>
    1bf0:	46 fd       	sbrc	r20, 6
    1bf2:	17 c0       	rjmp	.+46     	; 0x1c22 <mulacc+0x36>
    1bf4:	ab 01       	movw	r20, r22
    1bf6:	bc 01       	movw	r22, r24
    1bf8:	da 01       	movw	r26, r20
    1bfa:	fb 01       	movw	r30, r22
    1bfc:	aa 0f       	add	r26, r26
    1bfe:	bb 1f       	adc	r27, r27
    1c00:	ee 1f       	adc	r30, r30
    1c02:	ff 1f       	adc	r31, r31
    1c04:	10 94       	com	r1
    1c06:	d1 f7       	brne	.-12     	; 0x1bfc <mulacc+0x10>
    1c08:	4a 0f       	add	r20, r26
    1c0a:	5b 1f       	adc	r21, r27
    1c0c:	6e 1f       	adc	r22, r30
    1c0e:	7f 1f       	adc	r23, r31
    1c10:	cb 01       	movw	r24, r22
    1c12:	ba 01       	movw	r22, r20
    1c14:	66 0f       	add	r22, r22
    1c16:	77 1f       	adc	r23, r23
    1c18:	88 1f       	adc	r24, r24
    1c1a:	99 1f       	adc	r25, r25
    1c1c:	09 c0       	rjmp	.+18     	; 0x1c30 <mulacc+0x44>
    1c1e:	33 e0       	ldi	r19, 0x03	; 3
    1c20:	01 c0       	rjmp	.+2      	; 0x1c24 <mulacc+0x38>
    1c22:	34 e0       	ldi	r19, 0x04	; 4
    1c24:	66 0f       	add	r22, r22
    1c26:	77 1f       	adc	r23, r23
    1c28:	88 1f       	adc	r24, r24
    1c2a:	99 1f       	adc	r25, r25
    1c2c:	31 50       	subi	r19, 0x01	; 1
    1c2e:	d1 f7       	brne	.-12     	; 0x1c24 <mulacc+0x38>
    1c30:	62 0f       	add	r22, r18
    1c32:	71 1d       	adc	r23, r1
    1c34:	81 1d       	adc	r24, r1
    1c36:	91 1d       	adc	r25, r1
    1c38:	08 95       	ret

00001c3a <skip_spaces>:
    1c3a:	0f 93       	push	r16
    1c3c:	1f 93       	push	r17
    1c3e:	cf 93       	push	r28
    1c40:	df 93       	push	r29
    1c42:	8c 01       	movw	r16, r24
    1c44:	c8 01       	movw	r24, r16
    1c46:	0e 94 c1 10 	call	0x2182	; 0x2182 <fgetc>
    1c4a:	ec 01       	movw	r28, r24
    1c4c:	97 fd       	sbrc	r25, 7
    1c4e:	08 c0       	rjmp	.+16     	; 0x1c60 <skip_spaces+0x26>
    1c50:	0e 94 97 10 	call	0x212e	; 0x212e <isspace>
    1c54:	89 2b       	or	r24, r25
    1c56:	b1 f7       	brne	.-20     	; 0x1c44 <skip_spaces+0xa>
    1c58:	b8 01       	movw	r22, r16
    1c5a:	ce 01       	movw	r24, r28
    1c5c:	0e 94 3b 11 	call	0x2276	; 0x2276 <ungetc>
    1c60:	ce 01       	movw	r24, r28
    1c62:	df 91       	pop	r29
    1c64:	cf 91       	pop	r28
    1c66:	1f 91       	pop	r17
    1c68:	0f 91       	pop	r16
    1c6a:	08 95       	ret

00001c6c <conv_int>:
    1c6c:	8f 92       	push	r8
    1c6e:	9f 92       	push	r9
    1c70:	af 92       	push	r10
    1c72:	bf 92       	push	r11
    1c74:	ef 92       	push	r14
    1c76:	ff 92       	push	r15
    1c78:	0f 93       	push	r16
    1c7a:	1f 93       	push	r17
    1c7c:	cf 93       	push	r28
    1c7e:	df 93       	push	r29
    1c80:	8c 01       	movw	r16, r24
    1c82:	d6 2f       	mov	r29, r22
    1c84:	7a 01       	movw	r14, r20
    1c86:	b2 2e       	mov	r11, r18
    1c88:	0e 94 c1 10 	call	0x2182	; 0x2182 <fgetc>
    1c8c:	9c 01       	movw	r18, r24
    1c8e:	33 27       	eor	r19, r19
    1c90:	2b 32       	cpi	r18, 0x2B	; 43
    1c92:	31 05       	cpc	r19, r1
    1c94:	31 f0       	breq	.+12     	; 0x1ca2 <conv_int+0x36>
    1c96:	2d 32       	cpi	r18, 0x2D	; 45
    1c98:	31 05       	cpc	r19, r1
    1c9a:	61 f4       	brne	.+24     	; 0x1cb4 <conv_int+0x48>
    1c9c:	8b 2d       	mov	r24, r11
    1c9e:	80 68       	ori	r24, 0x80	; 128
    1ca0:	b8 2e       	mov	r11, r24
    1ca2:	d1 50       	subi	r29, 0x01	; 1
    1ca4:	11 f4       	brne	.+4      	; 0x1caa <conv_int+0x3e>
    1ca6:	80 e0       	ldi	r24, 0x00	; 0
    1ca8:	68 c0       	rjmp	.+208    	; 0x1d7a <conv_int+0x10e>
    1caa:	c8 01       	movw	r24, r16
    1cac:	0e 94 c1 10 	call	0x2182	; 0x2182 <fgetc>
    1cb0:	97 fd       	sbrc	r25, 7
    1cb2:	f9 cf       	rjmp	.-14     	; 0x1ca6 <conv_int+0x3a>
    1cb4:	cb 2d       	mov	r28, r11
    1cb6:	cd 7f       	andi	r28, 0xFD	; 253
    1cb8:	2b 2d       	mov	r18, r11
    1cba:	20 73       	andi	r18, 0x30	; 48
    1cbc:	09 f5       	brne	.+66     	; 0x1d00 <conv_int+0x94>
    1cbe:	80 33       	cpi	r24, 0x30	; 48
    1cc0:	f9 f4       	brne	.+62     	; 0x1d00 <conv_int+0x94>
    1cc2:	aa 24       	eor	r10, r10
    1cc4:	aa 94       	dec	r10
    1cc6:	ad 0e       	add	r10, r29
    1cc8:	09 f4       	brne	.+2      	; 0x1ccc <conv_int+0x60>
    1cca:	43 c0       	rjmp	.+134    	; 0x1d52 <conv_int+0xe6>
    1ccc:	c8 01       	movw	r24, r16
    1cce:	0e 94 c1 10 	call	0x2182	; 0x2182 <fgetc>
    1cd2:	97 fd       	sbrc	r25, 7
    1cd4:	3e c0       	rjmp	.+124    	; 0x1d52 <conv_int+0xe6>
    1cd6:	9c 01       	movw	r18, r24
    1cd8:	2f 7d       	andi	r18, 0xDF	; 223
    1cda:	33 27       	eor	r19, r19
    1cdc:	28 35       	cpi	r18, 0x58	; 88
    1cde:	31 05       	cpc	r19, r1
    1ce0:	49 f4       	brne	.+18     	; 0x1cf4 <conv_int+0x88>
    1ce2:	c2 64       	ori	r28, 0x42	; 66
    1ce4:	d2 50       	subi	r29, 0x02	; 2
    1ce6:	a9 f1       	breq	.+106    	; 0x1d52 <conv_int+0xe6>
    1ce8:	c8 01       	movw	r24, r16
    1cea:	0e 94 c1 10 	call	0x2182	; 0x2182 <fgetc>
    1cee:	97 ff       	sbrs	r25, 7
    1cf0:	07 c0       	rjmp	.+14     	; 0x1d00 <conv_int+0x94>
    1cf2:	2f c0       	rjmp	.+94     	; 0x1d52 <conv_int+0xe6>
    1cf4:	b6 fe       	sbrs	r11, 6
    1cf6:	02 c0       	rjmp	.+4      	; 0x1cfc <conv_int+0x90>
    1cf8:	c2 60       	ori	r28, 0x02	; 2
    1cfa:	01 c0       	rjmp	.+2      	; 0x1cfe <conv_int+0x92>
    1cfc:	c2 61       	ori	r28, 0x12	; 18
    1cfe:	da 2d       	mov	r29, r10
    1d00:	81 2c       	mov	r8, r1
    1d02:	91 2c       	mov	r9, r1
    1d04:	54 01       	movw	r10, r8
    1d06:	20 ed       	ldi	r18, 0xD0	; 208
    1d08:	28 0f       	add	r18, r24
    1d0a:	28 30       	cpi	r18, 0x08	; 8
    1d0c:	80 f0       	brcs	.+32     	; 0x1d2e <conv_int+0xc2>
    1d0e:	c4 ff       	sbrs	r28, 4
    1d10:	04 c0       	rjmp	.+8      	; 0x1d1a <conv_int+0xae>
    1d12:	b8 01       	movw	r22, r16
    1d14:	0e 94 3b 11 	call	0x2276	; 0x2276 <ungetc>
    1d18:	19 c0       	rjmp	.+50     	; 0x1d4c <conv_int+0xe0>
    1d1a:	2a 30       	cpi	r18, 0x0A	; 10
    1d1c:	40 f0       	brcs	.+16     	; 0x1d2e <conv_int+0xc2>
    1d1e:	c6 ff       	sbrs	r28, 6
    1d20:	f8 cf       	rjmp	.-16     	; 0x1d12 <conv_int+0xa6>
    1d22:	2f 7d       	andi	r18, 0xDF	; 223
    1d24:	3f ee       	ldi	r19, 0xEF	; 239
    1d26:	32 0f       	add	r19, r18
    1d28:	36 30       	cpi	r19, 0x06	; 6
    1d2a:	98 f7       	brcc	.-26     	; 0x1d12 <conv_int+0xa6>
    1d2c:	27 50       	subi	r18, 0x07	; 7
    1d2e:	4c 2f       	mov	r20, r28
    1d30:	c5 01       	movw	r24, r10
    1d32:	b4 01       	movw	r22, r8
    1d34:	0e 94 f6 0d 	call	0x1bec	; 0x1bec <mulacc>
    1d38:	4b 01       	movw	r8, r22
    1d3a:	5c 01       	movw	r10, r24
    1d3c:	c2 60       	ori	r28, 0x02	; 2
    1d3e:	d1 50       	subi	r29, 0x01	; 1
    1d40:	59 f0       	breq	.+22     	; 0x1d58 <conv_int+0xec>
    1d42:	c8 01       	movw	r24, r16
    1d44:	0e 94 c1 10 	call	0x2182	; 0x2182 <fgetc>
    1d48:	97 ff       	sbrs	r25, 7
    1d4a:	dd cf       	rjmp	.-70     	; 0x1d06 <conv_int+0x9a>
    1d4c:	c1 fd       	sbrc	r28, 1
    1d4e:	04 c0       	rjmp	.+8      	; 0x1d58 <conv_int+0xec>
    1d50:	aa cf       	rjmp	.-172    	; 0x1ca6 <conv_int+0x3a>
    1d52:	81 2c       	mov	r8, r1
    1d54:	91 2c       	mov	r9, r1
    1d56:	54 01       	movw	r10, r8
    1d58:	c7 ff       	sbrs	r28, 7
    1d5a:	08 c0       	rjmp	.+16     	; 0x1d6c <conv_int+0x100>
    1d5c:	b0 94       	com	r11
    1d5e:	a0 94       	com	r10
    1d60:	90 94       	com	r9
    1d62:	80 94       	com	r8
    1d64:	81 1c       	adc	r8, r1
    1d66:	91 1c       	adc	r9, r1
    1d68:	a1 1c       	adc	r10, r1
    1d6a:	b1 1c       	adc	r11, r1
    1d6c:	2c 2f       	mov	r18, r28
    1d6e:	b5 01       	movw	r22, r10
    1d70:	a4 01       	movw	r20, r8
    1d72:	c7 01       	movw	r24, r14
    1d74:	0e 94 ea 0d 	call	0x1bd4	; 0x1bd4 <putval>
    1d78:	81 e0       	ldi	r24, 0x01	; 1
    1d7a:	df 91       	pop	r29
    1d7c:	cf 91       	pop	r28
    1d7e:	1f 91       	pop	r17
    1d80:	0f 91       	pop	r16
    1d82:	ff 90       	pop	r15
    1d84:	ef 90       	pop	r14
    1d86:	bf 90       	pop	r11
    1d88:	af 90       	pop	r10
    1d8a:	9f 90       	pop	r9
    1d8c:	8f 90       	pop	r8
    1d8e:	08 95       	ret

00001d90 <conv_brk>:
    1d90:	a0 e2       	ldi	r26, 0x20	; 32
    1d92:	b0 e0       	ldi	r27, 0x00	; 0
    1d94:	ee ec       	ldi	r30, 0xCE	; 206
    1d96:	fe e0       	ldi	r31, 0x0E	; 14
    1d98:	0c 94 b8 11 	jmp	0x2370	; 0x2370 <__prologue_saves__+0x6>
    1d9c:	5c 01       	movw	r10, r24
    1d9e:	96 2e       	mov	r9, r22
    1da0:	7a 01       	movw	r14, r20
    1da2:	f9 01       	movw	r30, r18
    1da4:	8e 01       	movw	r16, r28
    1da6:	0f 5f       	subi	r16, 0xFF	; 255
    1da8:	1f 4f       	sbci	r17, 0xFF	; 255
    1daa:	68 01       	movw	r12, r16
    1dac:	80 e2       	ldi	r24, 0x20	; 32
    1dae:	d8 01       	movw	r26, r16
    1db0:	1d 92       	st	X+, r1
    1db2:	8a 95       	dec	r24
    1db4:	e9 f7       	brne	.-6      	; 0x1db0 <conv_brk+0x20>
    1db6:	d5 01       	movw	r26, r10
    1db8:	13 96       	adiw	r26, 0x03	; 3
    1dba:	8c 90       	ld	r8, X
    1dbc:	80 e0       	ldi	r24, 0x00	; 0
    1dbe:	90 e0       	ldi	r25, 0x00	; 0
    1dc0:	61 2c       	mov	r6, r1
    1dc2:	71 2c       	mov	r7, r1
    1dc4:	30 e0       	ldi	r19, 0x00	; 0
    1dc6:	61 e0       	ldi	r22, 0x01	; 1
    1dc8:	70 e0       	ldi	r23, 0x00	; 0
    1dca:	83 fc       	sbrc	r8, 3
    1dcc:	25 91       	lpm	r18, Z+
    1dce:	83 fe       	sbrs	r8, 3
    1dd0:	21 91       	ld	r18, Z+
    1dd2:	8f 01       	movw	r16, r30
    1dd4:	52 2e       	mov	r5, r18
    1dd6:	21 11       	cpse	r18, r1
    1dd8:	03 c0       	rjmp	.+6      	; 0x1de0 <conv_brk+0x50>
    1dda:	80 e0       	ldi	r24, 0x00	; 0
    1ddc:	90 e0       	ldi	r25, 0x00	; 0
    1dde:	92 c0       	rjmp	.+292    	; 0x1f04 <conv_brk+0x174>
    1de0:	2e 35       	cpi	r18, 0x5E	; 94
    1de2:	11 f4       	brne	.+4      	; 0x1de8 <conv_brk+0x58>
    1de4:	00 97       	sbiw	r24, 0x00	; 0
    1de6:	51 f1       	breq	.+84     	; 0x1e3c <conv_brk+0xac>
    1de8:	43 2f       	mov	r20, r19
    1dea:	50 e0       	ldi	r21, 0x00	; 0
    1dec:	48 17       	cp	r20, r24
    1dee:	59 07       	cpc	r21, r25
    1df0:	3c f4       	brge	.+14     	; 0x1e00 <conv_brk+0x70>
    1df2:	2d 35       	cpi	r18, 0x5D	; 93
    1df4:	59 f1       	breq	.+86     	; 0x1e4c <conv_brk+0xbc>
    1df6:	2d 32       	cpi	r18, 0x2D	; 45
    1df8:	19 f4       	brne	.+6      	; 0x1e00 <conv_brk+0x70>
    1dfa:	77 20       	and	r7, r7
    1dfc:	09 f1       	breq	.+66     	; 0x1e40 <conv_brk+0xb0>
    1dfe:	03 c0       	rjmp	.+6      	; 0x1e06 <conv_brk+0x76>
    1e00:	77 20       	and	r7, r7
    1e02:	09 f4       	brne	.+2      	; 0x1e06 <conv_brk+0x76>
    1e04:	6a c0       	rjmp	.+212    	; 0x1eda <conv_brk+0x14a>
    1e06:	45 2d       	mov	r20, r5
    1e08:	46 95       	lsr	r20
    1e0a:	46 95       	lsr	r20
    1e0c:	46 95       	lsr	r20
    1e0e:	d6 01       	movw	r26, r12
    1e10:	a4 0f       	add	r26, r20
    1e12:	b1 1d       	adc	r27, r1
    1e14:	45 2d       	mov	r20, r5
    1e16:	47 70       	andi	r20, 0x07	; 7
    1e18:	8b 01       	movw	r16, r22
    1e1a:	02 c0       	rjmp	.+4      	; 0x1e20 <conv_brk+0x90>
    1e1c:	00 0f       	add	r16, r16
    1e1e:	11 1f       	adc	r17, r17
    1e20:	4a 95       	dec	r20
    1e22:	e2 f7       	brpl	.-8      	; 0x1e1c <conv_brk+0x8c>
    1e24:	a8 01       	movw	r20, r16
    1e26:	5c 91       	ld	r21, X
    1e28:	45 2b       	or	r20, r21
    1e2a:	4c 93       	st	X, r20
    1e2c:	65 14       	cp	r6, r5
    1e2e:	59 f0       	breq	.+22     	; 0x1e46 <conv_brk+0xb6>
    1e30:	56 14       	cp	r5, r6
    1e32:	10 f4       	brcc	.+4      	; 0x1e38 <conv_brk+0xa8>
    1e34:	53 94       	inc	r5
    1e36:	e7 cf       	rjmp	.-50     	; 0x1e06 <conv_brk+0x76>
    1e38:	5a 94       	dec	r5
    1e3a:	e5 cf       	rjmp	.-54     	; 0x1e06 <conv_brk+0x76>
    1e3c:	31 e0       	ldi	r19, 0x01	; 1
    1e3e:	04 c0       	rjmp	.+8      	; 0x1e48 <conv_brk+0xb8>
    1e40:	77 24       	eor	r7, r7
    1e42:	73 94       	inc	r7
    1e44:	01 c0       	rjmp	.+2      	; 0x1e48 <conv_brk+0xb8>
    1e46:	71 2c       	mov	r7, r1
    1e48:	01 96       	adiw	r24, 0x01	; 1
    1e4a:	bf cf       	rjmp	.-130    	; 0x1dca <conv_brk+0x3a>
    1e4c:	77 20       	and	r7, r7
    1e4e:	19 f0       	breq	.+6      	; 0x1e56 <conv_brk+0xc6>
    1e50:	8e 81       	ldd	r24, Y+6	; 0x06
    1e52:	80 62       	ori	r24, 0x20	; 32
    1e54:	8e 83       	std	Y+6, r24	; 0x06
    1e56:	31 11       	cpse	r19, r1
    1e58:	03 c0       	rjmp	.+6      	; 0x1e60 <conv_brk+0xd0>
    1e5a:	88 24       	eor	r8, r8
    1e5c:	83 94       	inc	r8
    1e5e:	17 c0       	rjmp	.+46     	; 0x1e8e <conv_brk+0xfe>
    1e60:	f6 01       	movw	r30, r12
    1e62:	9e 01       	movw	r18, r28
    1e64:	2f 5d       	subi	r18, 0xDF	; 223
    1e66:	3f 4f       	sbci	r19, 0xFF	; 255
    1e68:	80 81       	ld	r24, Z
    1e6a:	80 95       	com	r24
    1e6c:	81 93       	st	Z+, r24
    1e6e:	2e 17       	cp	r18, r30
    1e70:	3f 07       	cpc	r19, r31
    1e72:	d1 f7       	brne	.-12     	; 0x1e68 <conv_brk+0xd8>
    1e74:	f2 cf       	rjmp	.-28     	; 0x1e5a <conv_brk+0xca>
    1e76:	e1 14       	cp	r14, r1
    1e78:	f1 04       	cpc	r15, r1
    1e7a:	29 f0       	breq	.+10     	; 0x1e86 <conv_brk+0xf6>
    1e7c:	d7 01       	movw	r26, r14
    1e7e:	8c 93       	st	X, r24
    1e80:	f7 01       	movw	r30, r14
    1e82:	31 96       	adiw	r30, 0x01	; 1
    1e84:	7f 01       	movw	r14, r30
    1e86:	9a 94       	dec	r9
    1e88:	81 2c       	mov	r8, r1
    1e8a:	99 20       	and	r9, r9
    1e8c:	f9 f0       	breq	.+62     	; 0x1ecc <conv_brk+0x13c>
    1e8e:	c5 01       	movw	r24, r10
    1e90:	0e 94 c1 10 	call	0x2182	; 0x2182 <fgetc>
    1e94:	97 fd       	sbrc	r25, 7
    1e96:	18 c0       	rjmp	.+48     	; 0x1ec8 <conv_brk+0x138>
    1e98:	fc 01       	movw	r30, r24
    1e9a:	ff 27       	eor	r31, r31
    1e9c:	23 e0       	ldi	r18, 0x03	; 3
    1e9e:	f5 95       	asr	r31
    1ea0:	e7 95       	ror	r30
    1ea2:	2a 95       	dec	r18
    1ea4:	e1 f7       	brne	.-8      	; 0x1e9e <conv_brk+0x10e>
    1ea6:	ec 0d       	add	r30, r12
    1ea8:	fd 1d       	adc	r31, r13
    1eaa:	20 81       	ld	r18, Z
    1eac:	30 e0       	ldi	r19, 0x00	; 0
    1eae:	ac 01       	movw	r20, r24
    1eb0:	47 70       	andi	r20, 0x07	; 7
    1eb2:	55 27       	eor	r21, r21
    1eb4:	02 c0       	rjmp	.+4      	; 0x1eba <conv_brk+0x12a>
    1eb6:	35 95       	asr	r19
    1eb8:	27 95       	ror	r18
    1eba:	4a 95       	dec	r20
    1ebc:	e2 f7       	brpl	.-8      	; 0x1eb6 <conv_brk+0x126>
    1ebe:	20 fd       	sbrc	r18, 0
    1ec0:	da cf       	rjmp	.-76     	; 0x1e76 <conv_brk+0xe6>
    1ec2:	b5 01       	movw	r22, r10
    1ec4:	0e 94 3b 11 	call	0x2276	; 0x2276 <ungetc>
    1ec8:	81 10       	cpse	r8, r1
    1eca:	87 cf       	rjmp	.-242    	; 0x1dda <conv_brk+0x4a>
    1ecc:	e1 14       	cp	r14, r1
    1ece:	f1 04       	cpc	r15, r1
    1ed0:	11 f0       	breq	.+4      	; 0x1ed6 <conv_brk+0x146>
    1ed2:	d7 01       	movw	r26, r14
    1ed4:	1c 92       	st	X, r1
    1ed6:	c8 01       	movw	r24, r16
    1ed8:	15 c0       	rjmp	.+42     	; 0x1f04 <conv_brk+0x174>
    1eda:	42 2f       	mov	r20, r18
    1edc:	46 95       	lsr	r20
    1ede:	46 95       	lsr	r20
    1ee0:	46 95       	lsr	r20
    1ee2:	d6 01       	movw	r26, r12
    1ee4:	a4 0f       	add	r26, r20
    1ee6:	b1 1d       	adc	r27, r1
    1ee8:	42 2f       	mov	r20, r18
    1eea:	47 70       	andi	r20, 0x07	; 7
    1eec:	8b 01       	movw	r16, r22
    1eee:	02 c0       	rjmp	.+4      	; 0x1ef4 <conv_brk+0x164>
    1ef0:	00 0f       	add	r16, r16
    1ef2:	11 1f       	adc	r17, r17
    1ef4:	4a 95       	dec	r20
    1ef6:	e2 f7       	brpl	.-8      	; 0x1ef0 <conv_brk+0x160>
    1ef8:	a8 01       	movw	r20, r16
    1efa:	5c 91       	ld	r21, X
    1efc:	45 2b       	or	r20, r21
    1efe:	4c 93       	st	X, r20
    1f00:	62 2e       	mov	r6, r18
    1f02:	a2 cf       	rjmp	.-188    	; 0x1e48 <conv_brk+0xb8>
    1f04:	a0 96       	adiw	r28, 0x20	; 32
    1f06:	ef e0       	ldi	r30, 0x0F	; 15
    1f08:	0c 94 d4 11 	jmp	0x23a8	; 0x23a8 <__epilogue_restores__+0x6>

00001f0c <vfscanf>:
    1f0c:	a0 e0       	ldi	r26, 0x00	; 0
    1f0e:	b0 e0       	ldi	r27, 0x00	; 0
    1f10:	ec e8       	ldi	r30, 0x8C	; 140
    1f12:	ff e0       	ldi	r31, 0x0F	; 15
    1f14:	0c 94 b8 11 	jmp	0x2370	; 0x2370 <__prologue_saves__+0x6>
    1f18:	6c 01       	movw	r12, r24
    1f1a:	eb 01       	movw	r28, r22
    1f1c:	5a 01       	movw	r10, r20
    1f1e:	fc 01       	movw	r30, r24
    1f20:	17 82       	std	Z+7, r1	; 0x07
    1f22:	16 82       	std	Z+6, r1	; 0x06
    1f24:	51 2c       	mov	r5, r1
    1f26:	f6 01       	movw	r30, r12
    1f28:	e3 80       	ldd	r14, Z+3	; 0x03
    1f2a:	fe 01       	movw	r30, r28
    1f2c:	e3 fc       	sbrc	r14, 3
    1f2e:	85 91       	lpm	r24, Z+
    1f30:	e3 fe       	sbrs	r14, 3
    1f32:	81 91       	ld	r24, Z+
    1f34:	18 2f       	mov	r17, r24
    1f36:	ef 01       	movw	r28, r30
    1f38:	88 23       	and	r24, r24
    1f3a:	09 f4       	brne	.+2      	; 0x1f3e <vfscanf+0x32>
    1f3c:	ee c0       	rjmp	.+476    	; 0x211a <vfscanf+0x20e>
    1f3e:	90 e0       	ldi	r25, 0x00	; 0
    1f40:	0e 94 97 10 	call	0x212e	; 0x212e <isspace>
    1f44:	89 2b       	or	r24, r25
    1f46:	21 f0       	breq	.+8      	; 0x1f50 <vfscanf+0x44>
    1f48:	c6 01       	movw	r24, r12
    1f4a:	0e 94 1d 0e 	call	0x1c3a	; 0x1c3a <skip_spaces>
    1f4e:	eb cf       	rjmp	.-42     	; 0x1f26 <vfscanf+0x1a>
    1f50:	15 32       	cpi	r17, 0x25	; 37
    1f52:	41 f4       	brne	.+16     	; 0x1f64 <vfscanf+0x58>
    1f54:	fe 01       	movw	r30, r28
    1f56:	e3 fc       	sbrc	r14, 3
    1f58:	15 91       	lpm	r17, Z+
    1f5a:	e3 fe       	sbrs	r14, 3
    1f5c:	11 91       	ld	r17, Z+
    1f5e:	ef 01       	movw	r28, r30
    1f60:	15 32       	cpi	r17, 0x25	; 37
    1f62:	81 f4       	brne	.+32     	; 0x1f84 <vfscanf+0x78>
    1f64:	c6 01       	movw	r24, r12
    1f66:	0e 94 c1 10 	call	0x2182	; 0x2182 <fgetc>
    1f6a:	97 fd       	sbrc	r25, 7
    1f6c:	d4 c0       	rjmp	.+424    	; 0x2116 <vfscanf+0x20a>
    1f6e:	41 2f       	mov	r20, r17
    1f70:	50 e0       	ldi	r21, 0x00	; 0
    1f72:	9c 01       	movw	r18, r24
    1f74:	33 27       	eor	r19, r19
    1f76:	24 17       	cp	r18, r20
    1f78:	35 07       	cpc	r19, r21
    1f7a:	a9 f2       	breq	.-86     	; 0x1f26 <vfscanf+0x1a>
    1f7c:	b6 01       	movw	r22, r12
    1f7e:	0e 94 3b 11 	call	0x2276	; 0x2276 <ungetc>
    1f82:	cb c0       	rjmp	.+406    	; 0x211a <vfscanf+0x20e>
    1f84:	1a 32       	cpi	r17, 0x2A	; 42
    1f86:	39 f4       	brne	.+14     	; 0x1f96 <vfscanf+0x8a>
    1f88:	e3 fc       	sbrc	r14, 3
    1f8a:	15 91       	lpm	r17, Z+
    1f8c:	e3 fe       	sbrs	r14, 3
    1f8e:	11 91       	ld	r17, Z+
    1f90:	ef 01       	movw	r28, r30
    1f92:	01 e0       	ldi	r16, 0x01	; 1
    1f94:	01 c0       	rjmp	.+2      	; 0x1f98 <vfscanf+0x8c>
    1f96:	00 e0       	ldi	r16, 0x00	; 0
    1f98:	f1 2c       	mov	r15, r1
    1f9a:	20 ed       	ldi	r18, 0xD0	; 208
    1f9c:	21 0f       	add	r18, r17
    1f9e:	2a 30       	cpi	r18, 0x0A	; 10
    1fa0:	80 f4       	brcc	.+32     	; 0x1fc2 <vfscanf+0xb6>
    1fa2:	02 60       	ori	r16, 0x02	; 2
    1fa4:	6f 2d       	mov	r22, r15
    1fa6:	70 e0       	ldi	r23, 0x00	; 0
    1fa8:	80 e0       	ldi	r24, 0x00	; 0
    1faa:	90 e0       	ldi	r25, 0x00	; 0
    1fac:	40 e2       	ldi	r20, 0x20	; 32
    1fae:	0e 94 f6 0d 	call	0x1bec	; 0x1bec <mulacc>
    1fb2:	f6 2e       	mov	r15, r22
    1fb4:	fe 01       	movw	r30, r28
    1fb6:	e3 fc       	sbrc	r14, 3
    1fb8:	15 91       	lpm	r17, Z+
    1fba:	e3 fe       	sbrs	r14, 3
    1fbc:	11 91       	ld	r17, Z+
    1fbe:	ef 01       	movw	r28, r30
    1fc0:	ec cf       	rjmp	.-40     	; 0x1f9a <vfscanf+0x8e>
    1fc2:	01 ff       	sbrs	r16, 1
    1fc4:	03 c0       	rjmp	.+6      	; 0x1fcc <vfscanf+0xc0>
    1fc6:	f1 10       	cpse	r15, r1
    1fc8:	03 c0       	rjmp	.+6      	; 0x1fd0 <vfscanf+0xc4>
    1fca:	a7 c0       	rjmp	.+334    	; 0x211a <vfscanf+0x20e>
    1fcc:	ff 24       	eor	r15, r15
    1fce:	fa 94       	dec	r15
    1fd0:	18 36       	cpi	r17, 0x68	; 104
    1fd2:	19 f0       	breq	.+6      	; 0x1fda <vfscanf+0xce>
    1fd4:	1c 36       	cpi	r17, 0x6C	; 108
    1fd6:	51 f0       	breq	.+20     	; 0x1fec <vfscanf+0xe0>
    1fd8:	10 c0       	rjmp	.+32     	; 0x1ffa <vfscanf+0xee>
    1fda:	fe 01       	movw	r30, r28
    1fdc:	e3 fc       	sbrc	r14, 3
    1fde:	15 91       	lpm	r17, Z+
    1fe0:	e3 fe       	sbrs	r14, 3
    1fe2:	11 91       	ld	r17, Z+
    1fe4:	ef 01       	movw	r28, r30
    1fe6:	18 36       	cpi	r17, 0x68	; 104
    1fe8:	41 f4       	brne	.+16     	; 0x1ffa <vfscanf+0xee>
    1fea:	08 60       	ori	r16, 0x08	; 8
    1fec:	04 60       	ori	r16, 0x04	; 4
    1fee:	fe 01       	movw	r30, r28
    1ff0:	e3 fc       	sbrc	r14, 3
    1ff2:	15 91       	lpm	r17, Z+
    1ff4:	e3 fe       	sbrs	r14, 3
    1ff6:	11 91       	ld	r17, Z+
    1ff8:	ef 01       	movw	r28, r30
    1ffa:	11 23       	and	r17, r17
    1ffc:	09 f4       	brne	.+2      	; 0x2000 <vfscanf+0xf4>
    1ffe:	8d c0       	rjmp	.+282    	; 0x211a <vfscanf+0x20e>
    2000:	61 2f       	mov	r22, r17
    2002:	70 e0       	ldi	r23, 0x00	; 0
    2004:	84 e5       	ldi	r24, 0x54	; 84
    2006:	90 e0       	ldi	r25, 0x00	; 0
    2008:	0e 94 a0 10 	call	0x2140	; 0x2140 <strchr_P>
    200c:	89 2b       	or	r24, r25
    200e:	09 f4       	brne	.+2      	; 0x2012 <vfscanf+0x106>
    2010:	84 c0       	rjmp	.+264    	; 0x211a <vfscanf+0x20e>
    2012:	00 fd       	sbrc	r16, 0
    2014:	07 c0       	rjmp	.+14     	; 0x2024 <vfscanf+0x118>
    2016:	f5 01       	movw	r30, r10
    2018:	80 80       	ld	r8, Z
    201a:	91 80       	ldd	r9, Z+1	; 0x01
    201c:	c5 01       	movw	r24, r10
    201e:	02 96       	adiw	r24, 0x02	; 2
    2020:	5c 01       	movw	r10, r24
    2022:	02 c0       	rjmp	.+4      	; 0x2028 <vfscanf+0x11c>
    2024:	81 2c       	mov	r8, r1
    2026:	91 2c       	mov	r9, r1
    2028:	1e 36       	cpi	r17, 0x6E	; 110
    202a:	51 f4       	brne	.+20     	; 0x2040 <vfscanf+0x134>
    202c:	f6 01       	movw	r30, r12
    202e:	46 81       	ldd	r20, Z+6	; 0x06
    2030:	57 81       	ldd	r21, Z+7	; 0x07
    2032:	60 e0       	ldi	r22, 0x00	; 0
    2034:	70 e0       	ldi	r23, 0x00	; 0
    2036:	20 2f       	mov	r18, r16
    2038:	c4 01       	movw	r24, r8
    203a:	0e 94 ea 0d 	call	0x1bd4	; 0x1bd4 <putval>
    203e:	73 cf       	rjmp	.-282    	; 0x1f26 <vfscanf+0x1a>
    2040:	13 36       	cpi	r17, 0x63	; 99
    2042:	a9 f4       	brne	.+42     	; 0x206e <vfscanf+0x162>
    2044:	01 fd       	sbrc	r16, 1
    2046:	02 c0       	rjmp	.+4      	; 0x204c <vfscanf+0x140>
    2048:	ff 24       	eor	r15, r15
    204a:	f3 94       	inc	r15
    204c:	c6 01       	movw	r24, r12
    204e:	0e 94 c1 10 	call	0x2182	; 0x2182 <fgetc>
    2052:	97 fd       	sbrc	r25, 7
    2054:	60 c0       	rjmp	.+192    	; 0x2116 <vfscanf+0x20a>
    2056:	81 14       	cp	r8, r1
    2058:	91 04       	cpc	r9, r1
    205a:	29 f0       	breq	.+10     	; 0x2066 <vfscanf+0x15a>
    205c:	f4 01       	movw	r30, r8
    205e:	80 83       	st	Z, r24
    2060:	c4 01       	movw	r24, r8
    2062:	01 96       	adiw	r24, 0x01	; 1
    2064:	4c 01       	movw	r8, r24
    2066:	fa 94       	dec	r15
    2068:	f1 10       	cpse	r15, r1
    206a:	f0 cf       	rjmp	.-32     	; 0x204c <vfscanf+0x140>
    206c:	50 c0       	rjmp	.+160    	; 0x210e <vfscanf+0x202>
    206e:	1b 35       	cpi	r17, 0x5B	; 91
    2070:	59 f4       	brne	.+22     	; 0x2088 <vfscanf+0x17c>
    2072:	9e 01       	movw	r18, r28
    2074:	a4 01       	movw	r20, r8
    2076:	6f 2d       	mov	r22, r15
    2078:	c6 01       	movw	r24, r12
    207a:	0e 94 c8 0e 	call	0x1d90	; 0x1d90 <conv_brk>
    207e:	ec 01       	movw	r28, r24
    2080:	89 2b       	or	r24, r25
    2082:	09 f0       	breq	.+2      	; 0x2086 <vfscanf+0x17a>
    2084:	44 c0       	rjmp	.+136    	; 0x210e <vfscanf+0x202>
    2086:	3e c0       	rjmp	.+124    	; 0x2104 <vfscanf+0x1f8>
    2088:	c6 01       	movw	r24, r12
    208a:	0e 94 1d 0e 	call	0x1c3a	; 0x1c3a <skip_spaces>
    208e:	97 fd       	sbrc	r25, 7
    2090:	42 c0       	rjmp	.+132    	; 0x2116 <vfscanf+0x20a>
    2092:	1f 36       	cpi	r17, 0x6F	; 111
    2094:	61 f1       	breq	.+88     	; 0x20ee <vfscanf+0x1e2>
    2096:	28 f4       	brcc	.+10     	; 0x20a2 <vfscanf+0x196>
    2098:	14 36       	cpi	r17, 0x64	; 100
    209a:	39 f1       	breq	.+78     	; 0x20ea <vfscanf+0x1de>
    209c:	19 36       	cpi	r17, 0x69	; 105
    209e:	51 f1       	breq	.+84     	; 0x20f4 <vfscanf+0x1e8>
    20a0:	28 c0       	rjmp	.+80     	; 0x20f2 <vfscanf+0x1e6>
    20a2:	13 37       	cpi	r17, 0x73	; 115
    20a4:	71 f0       	breq	.+28     	; 0x20c2 <vfscanf+0x1b6>
    20a6:	15 37       	cpi	r17, 0x75	; 117
    20a8:	01 f1       	breq	.+64     	; 0x20ea <vfscanf+0x1de>
    20aa:	23 c0       	rjmp	.+70     	; 0x20f2 <vfscanf+0x1e6>
    20ac:	81 14       	cp	r8, r1
    20ae:	91 04       	cpc	r9, r1
    20b0:	29 f0       	breq	.+10     	; 0x20bc <vfscanf+0x1b0>
    20b2:	f4 01       	movw	r30, r8
    20b4:	60 82       	st	Z, r6
    20b6:	c4 01       	movw	r24, r8
    20b8:	01 96       	adiw	r24, 0x01	; 1
    20ba:	4c 01       	movw	r8, r24
    20bc:	fa 94       	dec	r15
    20be:	ff 20       	and	r15, r15
    20c0:	71 f0       	breq	.+28     	; 0x20de <vfscanf+0x1d2>
    20c2:	c6 01       	movw	r24, r12
    20c4:	0e 94 c1 10 	call	0x2182	; 0x2182 <fgetc>
    20c8:	3c 01       	movw	r6, r24
    20ca:	97 fd       	sbrc	r25, 7
    20cc:	08 c0       	rjmp	.+16     	; 0x20de <vfscanf+0x1d2>
    20ce:	0e 94 97 10 	call	0x212e	; 0x212e <isspace>
    20d2:	89 2b       	or	r24, r25
    20d4:	59 f3       	breq	.-42     	; 0x20ac <vfscanf+0x1a0>
    20d6:	b6 01       	movw	r22, r12
    20d8:	c3 01       	movw	r24, r6
    20da:	0e 94 3b 11 	call	0x2276	; 0x2276 <ungetc>
    20de:	81 14       	cp	r8, r1
    20e0:	91 04       	cpc	r9, r1
    20e2:	a9 f0       	breq	.+42     	; 0x210e <vfscanf+0x202>
    20e4:	f4 01       	movw	r30, r8
    20e6:	10 82       	st	Z, r1
    20e8:	12 c0       	rjmp	.+36     	; 0x210e <vfscanf+0x202>
    20ea:	00 62       	ori	r16, 0x20	; 32
    20ec:	03 c0       	rjmp	.+6      	; 0x20f4 <vfscanf+0x1e8>
    20ee:	00 61       	ori	r16, 0x10	; 16
    20f0:	01 c0       	rjmp	.+2      	; 0x20f4 <vfscanf+0x1e8>
    20f2:	00 64       	ori	r16, 0x40	; 64
    20f4:	20 2f       	mov	r18, r16
    20f6:	a4 01       	movw	r20, r8
    20f8:	6f 2d       	mov	r22, r15
    20fa:	c6 01       	movw	r24, r12
    20fc:	0e 94 36 0e 	call	0x1c6c	; 0x1c6c <conv_int>
    2100:	81 11       	cpse	r24, r1
    2102:	05 c0       	rjmp	.+10     	; 0x210e <vfscanf+0x202>
    2104:	f6 01       	movw	r30, r12
    2106:	83 81       	ldd	r24, Z+3	; 0x03
    2108:	80 73       	andi	r24, 0x30	; 48
    210a:	29 f4       	brne	.+10     	; 0x2116 <vfscanf+0x20a>
    210c:	06 c0       	rjmp	.+12     	; 0x211a <vfscanf+0x20e>
    210e:	00 fd       	sbrc	r16, 0
    2110:	0a cf       	rjmp	.-492    	; 0x1f26 <vfscanf+0x1a>
    2112:	53 94       	inc	r5
    2114:	08 cf       	rjmp	.-496    	; 0x1f26 <vfscanf+0x1a>
    2116:	55 20       	and	r5, r5
    2118:	19 f0       	breq	.+6      	; 0x2120 <vfscanf+0x214>
    211a:	85 2d       	mov	r24, r5
    211c:	90 e0       	ldi	r25, 0x00	; 0
    211e:	02 c0       	rjmp	.+4      	; 0x2124 <vfscanf+0x218>
    2120:	8f ef       	ldi	r24, 0xFF	; 255
    2122:	9f ef       	ldi	r25, 0xFF	; 255
    2124:	cd b7       	in	r28, 0x3d	; 61
    2126:	de b7       	in	r29, 0x3e	; 62
    2128:	ef e0       	ldi	r30, 0x0F	; 15
    212a:	0c 94 d4 11 	jmp	0x23a8	; 0x23a8 <__epilogue_restores__+0x6>

0000212e <isspace>:
    212e:	91 11       	cpse	r25, r1
    2130:	0c 94 b2 11 	jmp	0x2364	; 0x2364 <__ctype_isfalse>
    2134:	80 32       	cpi	r24, 0x20	; 32
    2136:	19 f0       	breq	.+6      	; 0x213e <isspace+0x10>
    2138:	89 50       	subi	r24, 0x09	; 9
    213a:	85 50       	subi	r24, 0x05	; 5
    213c:	c8 f7       	brcc	.-14     	; 0x2130 <isspace+0x2>
    213e:	08 95       	ret

00002140 <strchr_P>:
    2140:	fc 01       	movw	r30, r24
    2142:	05 90       	lpm	r0, Z+
    2144:	06 16       	cp	r0, r22
    2146:	21 f0       	breq	.+8      	; 0x2150 <strchr_P+0x10>
    2148:	00 20       	and	r0, r0
    214a:	d9 f7       	brne	.-10     	; 0x2142 <strchr_P+0x2>
    214c:	c0 01       	movw	r24, r0
    214e:	08 95       	ret
    2150:	31 97       	sbiw	r30, 0x01	; 1
    2152:	cf 01       	movw	r24, r30
    2154:	08 95       	ret

00002156 <strnlen_P>:
    2156:	fc 01       	movw	r30, r24
    2158:	05 90       	lpm	r0, Z+
    215a:	61 50       	subi	r22, 0x01	; 1
    215c:	70 40       	sbci	r23, 0x00	; 0
    215e:	01 10       	cpse	r0, r1
    2160:	d8 f7       	brcc	.-10     	; 0x2158 <strnlen_P+0x2>
    2162:	80 95       	com	r24
    2164:	90 95       	com	r25
    2166:	8e 0f       	add	r24, r30
    2168:	9f 1f       	adc	r25, r31
    216a:	08 95       	ret

0000216c <strnlen>:
    216c:	fc 01       	movw	r30, r24
    216e:	61 50       	subi	r22, 0x01	; 1
    2170:	70 40       	sbci	r23, 0x00	; 0
    2172:	01 90       	ld	r0, Z+
    2174:	01 10       	cpse	r0, r1
    2176:	d8 f7       	brcc	.-10     	; 0x216e <strnlen+0x2>
    2178:	80 95       	com	r24
    217a:	90 95       	com	r25
    217c:	8e 0f       	add	r24, r30
    217e:	9f 1f       	adc	r25, r31
    2180:	08 95       	ret

00002182 <fgetc>:
    2182:	cf 93       	push	r28
    2184:	df 93       	push	r29
    2186:	ec 01       	movw	r28, r24
    2188:	2b 81       	ldd	r18, Y+3	; 0x03
    218a:	20 ff       	sbrs	r18, 0
    218c:	33 c0       	rjmp	.+102    	; 0x21f4 <fgetc+0x72>
    218e:	26 ff       	sbrs	r18, 6
    2190:	0a c0       	rjmp	.+20     	; 0x21a6 <fgetc+0x24>
    2192:	2f 7b       	andi	r18, 0xBF	; 191
    2194:	2b 83       	std	Y+3, r18	; 0x03
    2196:	8e 81       	ldd	r24, Y+6	; 0x06
    2198:	9f 81       	ldd	r25, Y+7	; 0x07
    219a:	01 96       	adiw	r24, 0x01	; 1
    219c:	9f 83       	std	Y+7, r25	; 0x07
    219e:	8e 83       	std	Y+6, r24	; 0x06
    21a0:	8a 81       	ldd	r24, Y+2	; 0x02
    21a2:	90 e0       	ldi	r25, 0x00	; 0
    21a4:	29 c0       	rjmp	.+82     	; 0x21f8 <fgetc+0x76>
    21a6:	22 ff       	sbrs	r18, 2
    21a8:	0f c0       	rjmp	.+30     	; 0x21c8 <fgetc+0x46>
    21aa:	e8 81       	ld	r30, Y
    21ac:	f9 81       	ldd	r31, Y+1	; 0x01
    21ae:	80 81       	ld	r24, Z
    21b0:	08 2e       	mov	r0, r24
    21b2:	00 0c       	add	r0, r0
    21b4:	99 0b       	sbc	r25, r25
    21b6:	00 97       	sbiw	r24, 0x00	; 0
    21b8:	19 f4       	brne	.+6      	; 0x21c0 <fgetc+0x3e>
    21ba:	20 62       	ori	r18, 0x20	; 32
    21bc:	2b 83       	std	Y+3, r18	; 0x03
    21be:	1a c0       	rjmp	.+52     	; 0x21f4 <fgetc+0x72>
    21c0:	31 96       	adiw	r30, 0x01	; 1
    21c2:	f9 83       	std	Y+1, r31	; 0x01
    21c4:	e8 83       	st	Y, r30
    21c6:	0e c0       	rjmp	.+28     	; 0x21e4 <fgetc+0x62>
    21c8:	ea 85       	ldd	r30, Y+10	; 0x0a
    21ca:	fb 85       	ldd	r31, Y+11	; 0x0b
    21cc:	09 95       	icall
    21ce:	97 ff       	sbrs	r25, 7
    21d0:	09 c0       	rjmp	.+18     	; 0x21e4 <fgetc+0x62>
    21d2:	2b 81       	ldd	r18, Y+3	; 0x03
    21d4:	01 96       	adiw	r24, 0x01	; 1
    21d6:	11 f0       	breq	.+4      	; 0x21dc <fgetc+0x5a>
    21d8:	80 e2       	ldi	r24, 0x20	; 32
    21da:	01 c0       	rjmp	.+2      	; 0x21de <fgetc+0x5c>
    21dc:	80 e1       	ldi	r24, 0x10	; 16
    21de:	82 2b       	or	r24, r18
    21e0:	8b 83       	std	Y+3, r24	; 0x03
    21e2:	08 c0       	rjmp	.+16     	; 0x21f4 <fgetc+0x72>
    21e4:	2e 81       	ldd	r18, Y+6	; 0x06
    21e6:	3f 81       	ldd	r19, Y+7	; 0x07
    21e8:	2f 5f       	subi	r18, 0xFF	; 255
    21ea:	3f 4f       	sbci	r19, 0xFF	; 255
    21ec:	3f 83       	std	Y+7, r19	; 0x07
    21ee:	2e 83       	std	Y+6, r18	; 0x06
    21f0:	99 27       	eor	r25, r25
    21f2:	02 c0       	rjmp	.+4      	; 0x21f8 <fgetc+0x76>
    21f4:	8f ef       	ldi	r24, 0xFF	; 255
    21f6:	9f ef       	ldi	r25, 0xFF	; 255
    21f8:	df 91       	pop	r29
    21fa:	cf 91       	pop	r28
    21fc:	08 95       	ret

000021fe <fputc>:
    21fe:	0f 93       	push	r16
    2200:	1f 93       	push	r17
    2202:	cf 93       	push	r28
    2204:	df 93       	push	r29
    2206:	fb 01       	movw	r30, r22
    2208:	23 81       	ldd	r18, Z+3	; 0x03
    220a:	21 fd       	sbrc	r18, 1
    220c:	03 c0       	rjmp	.+6      	; 0x2214 <fputc+0x16>
    220e:	8f ef       	ldi	r24, 0xFF	; 255
    2210:	9f ef       	ldi	r25, 0xFF	; 255
    2212:	2c c0       	rjmp	.+88     	; 0x226c <fputc+0x6e>
    2214:	22 ff       	sbrs	r18, 2
    2216:	16 c0       	rjmp	.+44     	; 0x2244 <fputc+0x46>
    2218:	46 81       	ldd	r20, Z+6	; 0x06
    221a:	57 81       	ldd	r21, Z+7	; 0x07
    221c:	24 81       	ldd	r18, Z+4	; 0x04
    221e:	35 81       	ldd	r19, Z+5	; 0x05
    2220:	42 17       	cp	r20, r18
    2222:	53 07       	cpc	r21, r19
    2224:	44 f4       	brge	.+16     	; 0x2236 <fputc+0x38>
    2226:	a0 81       	ld	r26, Z
    2228:	b1 81       	ldd	r27, Z+1	; 0x01
    222a:	9d 01       	movw	r18, r26
    222c:	2f 5f       	subi	r18, 0xFF	; 255
    222e:	3f 4f       	sbci	r19, 0xFF	; 255
    2230:	31 83       	std	Z+1, r19	; 0x01
    2232:	20 83       	st	Z, r18
    2234:	8c 93       	st	X, r24
    2236:	26 81       	ldd	r18, Z+6	; 0x06
    2238:	37 81       	ldd	r19, Z+7	; 0x07
    223a:	2f 5f       	subi	r18, 0xFF	; 255
    223c:	3f 4f       	sbci	r19, 0xFF	; 255
    223e:	37 83       	std	Z+7, r19	; 0x07
    2240:	26 83       	std	Z+6, r18	; 0x06
    2242:	14 c0       	rjmp	.+40     	; 0x226c <fputc+0x6e>
    2244:	8b 01       	movw	r16, r22
    2246:	ec 01       	movw	r28, r24
    2248:	fb 01       	movw	r30, r22
    224a:	00 84       	ldd	r0, Z+8	; 0x08
    224c:	f1 85       	ldd	r31, Z+9	; 0x09
    224e:	e0 2d       	mov	r30, r0
    2250:	09 95       	icall
    2252:	89 2b       	or	r24, r25
    2254:	e1 f6       	brne	.-72     	; 0x220e <fputc+0x10>
    2256:	d8 01       	movw	r26, r16
    2258:	16 96       	adiw	r26, 0x06	; 6
    225a:	8d 91       	ld	r24, X+
    225c:	9c 91       	ld	r25, X
    225e:	17 97       	sbiw	r26, 0x07	; 7
    2260:	01 96       	adiw	r24, 0x01	; 1
    2262:	17 96       	adiw	r26, 0x07	; 7
    2264:	9c 93       	st	X, r25
    2266:	8e 93       	st	-X, r24
    2268:	16 97       	sbiw	r26, 0x06	; 6
    226a:	ce 01       	movw	r24, r28
    226c:	df 91       	pop	r29
    226e:	cf 91       	pop	r28
    2270:	1f 91       	pop	r17
    2272:	0f 91       	pop	r16
    2274:	08 95       	ret

00002276 <ungetc>:
    2276:	fb 01       	movw	r30, r22
    2278:	23 81       	ldd	r18, Z+3	; 0x03
    227a:	20 ff       	sbrs	r18, 0
    227c:	12 c0       	rjmp	.+36     	; 0x22a2 <ungetc+0x2c>
    227e:	26 fd       	sbrc	r18, 6
    2280:	10 c0       	rjmp	.+32     	; 0x22a2 <ungetc+0x2c>
    2282:	8f 3f       	cpi	r24, 0xFF	; 255
    2284:	3f ef       	ldi	r19, 0xFF	; 255
    2286:	93 07       	cpc	r25, r19
    2288:	61 f0       	breq	.+24     	; 0x22a2 <ungetc+0x2c>
    228a:	82 83       	std	Z+2, r24	; 0x02
    228c:	2f 7d       	andi	r18, 0xDF	; 223
    228e:	20 64       	ori	r18, 0x40	; 64
    2290:	23 83       	std	Z+3, r18	; 0x03
    2292:	26 81       	ldd	r18, Z+6	; 0x06
    2294:	37 81       	ldd	r19, Z+7	; 0x07
    2296:	21 50       	subi	r18, 0x01	; 1
    2298:	31 09       	sbc	r19, r1
    229a:	37 83       	std	Z+7, r19	; 0x07
    229c:	26 83       	std	Z+6, r18	; 0x06
    229e:	99 27       	eor	r25, r25
    22a0:	08 95       	ret
    22a2:	8f ef       	ldi	r24, 0xFF	; 255
    22a4:	9f ef       	ldi	r25, 0xFF	; 255
    22a6:	08 95       	ret

000022a8 <__ultoa_invert>:
    22a8:	fa 01       	movw	r30, r20
    22aa:	aa 27       	eor	r26, r26
    22ac:	28 30       	cpi	r18, 0x08	; 8
    22ae:	51 f1       	breq	.+84     	; 0x2304 <__ultoa_invert+0x5c>
    22b0:	20 31       	cpi	r18, 0x10	; 16
    22b2:	81 f1       	breq	.+96     	; 0x2314 <__ultoa_invert+0x6c>
    22b4:	e8 94       	clt
    22b6:	6f 93       	push	r22
    22b8:	6e 7f       	andi	r22, 0xFE	; 254
    22ba:	6e 5f       	subi	r22, 0xFE	; 254
    22bc:	7f 4f       	sbci	r23, 0xFF	; 255
    22be:	8f 4f       	sbci	r24, 0xFF	; 255
    22c0:	9f 4f       	sbci	r25, 0xFF	; 255
    22c2:	af 4f       	sbci	r26, 0xFF	; 255
    22c4:	b1 e0       	ldi	r27, 0x01	; 1
    22c6:	3e d0       	rcall	.+124    	; 0x2344 <__ultoa_invert+0x9c>
    22c8:	b4 e0       	ldi	r27, 0x04	; 4
    22ca:	3c d0       	rcall	.+120    	; 0x2344 <__ultoa_invert+0x9c>
    22cc:	67 0f       	add	r22, r23
    22ce:	78 1f       	adc	r23, r24
    22d0:	89 1f       	adc	r24, r25
    22d2:	9a 1f       	adc	r25, r26
    22d4:	a1 1d       	adc	r26, r1
    22d6:	68 0f       	add	r22, r24
    22d8:	79 1f       	adc	r23, r25
    22da:	8a 1f       	adc	r24, r26
    22dc:	91 1d       	adc	r25, r1
    22de:	a1 1d       	adc	r26, r1
    22e0:	6a 0f       	add	r22, r26
    22e2:	71 1d       	adc	r23, r1
    22e4:	81 1d       	adc	r24, r1
    22e6:	91 1d       	adc	r25, r1
    22e8:	a1 1d       	adc	r26, r1
    22ea:	20 d0       	rcall	.+64     	; 0x232c <__ultoa_invert+0x84>
    22ec:	09 f4       	brne	.+2      	; 0x22f0 <__ultoa_invert+0x48>
    22ee:	68 94       	set
    22f0:	3f 91       	pop	r19
    22f2:	2a e0       	ldi	r18, 0x0A	; 10
    22f4:	26 9f       	mul	r18, r22
    22f6:	11 24       	eor	r1, r1
    22f8:	30 19       	sub	r19, r0
    22fa:	30 5d       	subi	r19, 0xD0	; 208
    22fc:	31 93       	st	Z+, r19
    22fe:	de f6       	brtc	.-74     	; 0x22b6 <__ultoa_invert+0xe>
    2300:	cf 01       	movw	r24, r30
    2302:	08 95       	ret
    2304:	46 2f       	mov	r20, r22
    2306:	47 70       	andi	r20, 0x07	; 7
    2308:	40 5d       	subi	r20, 0xD0	; 208
    230a:	41 93       	st	Z+, r20
    230c:	b3 e0       	ldi	r27, 0x03	; 3
    230e:	0f d0       	rcall	.+30     	; 0x232e <__ultoa_invert+0x86>
    2310:	c9 f7       	brne	.-14     	; 0x2304 <__ultoa_invert+0x5c>
    2312:	f6 cf       	rjmp	.-20     	; 0x2300 <__ultoa_invert+0x58>
    2314:	46 2f       	mov	r20, r22
    2316:	4f 70       	andi	r20, 0x0F	; 15
    2318:	40 5d       	subi	r20, 0xD0	; 208
    231a:	4a 33       	cpi	r20, 0x3A	; 58
    231c:	18 f0       	brcs	.+6      	; 0x2324 <__ultoa_invert+0x7c>
    231e:	49 5d       	subi	r20, 0xD9	; 217
    2320:	31 fd       	sbrc	r19, 1
    2322:	40 52       	subi	r20, 0x20	; 32
    2324:	41 93       	st	Z+, r20
    2326:	02 d0       	rcall	.+4      	; 0x232c <__ultoa_invert+0x84>
    2328:	a9 f7       	brne	.-22     	; 0x2314 <__ultoa_invert+0x6c>
    232a:	ea cf       	rjmp	.-44     	; 0x2300 <__ultoa_invert+0x58>
    232c:	b4 e0       	ldi	r27, 0x04	; 4
    232e:	a6 95       	lsr	r26
    2330:	97 95       	ror	r25
    2332:	87 95       	ror	r24
    2334:	77 95       	ror	r23
    2336:	67 95       	ror	r22
    2338:	ba 95       	dec	r27
    233a:	c9 f7       	brne	.-14     	; 0x232e <__ultoa_invert+0x86>
    233c:	00 97       	sbiw	r24, 0x00	; 0
    233e:	61 05       	cpc	r22, r1
    2340:	71 05       	cpc	r23, r1
    2342:	08 95       	ret
    2344:	9b 01       	movw	r18, r22
    2346:	ac 01       	movw	r20, r24
    2348:	0a 2e       	mov	r0, r26
    234a:	06 94       	lsr	r0
    234c:	57 95       	ror	r21
    234e:	47 95       	ror	r20
    2350:	37 95       	ror	r19
    2352:	27 95       	ror	r18
    2354:	ba 95       	dec	r27
    2356:	c9 f7       	brne	.-14     	; 0x234a <__ultoa_invert+0xa2>
    2358:	62 0f       	add	r22, r18
    235a:	73 1f       	adc	r23, r19
    235c:	84 1f       	adc	r24, r20
    235e:	95 1f       	adc	r25, r21
    2360:	a0 1d       	adc	r26, r0
    2362:	08 95       	ret

00002364 <__ctype_isfalse>:
    2364:	99 27       	eor	r25, r25
    2366:	88 27       	eor	r24, r24

00002368 <__ctype_istrue>:
    2368:	08 95       	ret

0000236a <__prologue_saves__>:
    236a:	2f 92       	push	r2
    236c:	3f 92       	push	r3
    236e:	4f 92       	push	r4
    2370:	5f 92       	push	r5
    2372:	6f 92       	push	r6
    2374:	7f 92       	push	r7
    2376:	8f 92       	push	r8
    2378:	9f 92       	push	r9
    237a:	af 92       	push	r10
    237c:	bf 92       	push	r11
    237e:	cf 92       	push	r12
    2380:	df 92       	push	r13
    2382:	ef 92       	push	r14
    2384:	ff 92       	push	r15
    2386:	0f 93       	push	r16
    2388:	1f 93       	push	r17
    238a:	cf 93       	push	r28
    238c:	df 93       	push	r29
    238e:	cd b7       	in	r28, 0x3d	; 61
    2390:	de b7       	in	r29, 0x3e	; 62
    2392:	ca 1b       	sub	r28, r26
    2394:	db 0b       	sbc	r29, r27
    2396:	0f b6       	in	r0, 0x3f	; 63
    2398:	f8 94       	cli
    239a:	de bf       	out	0x3e, r29	; 62
    239c:	0f be       	out	0x3f, r0	; 63
    239e:	cd bf       	out	0x3d, r28	; 61
    23a0:	09 94       	ijmp

000023a2 <__epilogue_restores__>:
    23a2:	2a 88       	ldd	r2, Y+18	; 0x12
    23a4:	39 88       	ldd	r3, Y+17	; 0x11
    23a6:	48 88       	ldd	r4, Y+16	; 0x10
    23a8:	5f 84       	ldd	r5, Y+15	; 0x0f
    23aa:	6e 84       	ldd	r6, Y+14	; 0x0e
    23ac:	7d 84       	ldd	r7, Y+13	; 0x0d
    23ae:	8c 84       	ldd	r8, Y+12	; 0x0c
    23b0:	9b 84       	ldd	r9, Y+11	; 0x0b
    23b2:	aa 84       	ldd	r10, Y+10	; 0x0a
    23b4:	b9 84       	ldd	r11, Y+9	; 0x09
    23b6:	c8 84       	ldd	r12, Y+8	; 0x08
    23b8:	df 80       	ldd	r13, Y+7	; 0x07
    23ba:	ee 80       	ldd	r14, Y+6	; 0x06
    23bc:	fd 80       	ldd	r15, Y+5	; 0x05
    23be:	0c 81       	ldd	r16, Y+4	; 0x04
    23c0:	1b 81       	ldd	r17, Y+3	; 0x03
    23c2:	aa 81       	ldd	r26, Y+2	; 0x02
    23c4:	b9 81       	ldd	r27, Y+1	; 0x01
    23c6:	ce 0f       	add	r28, r30
    23c8:	d1 1d       	adc	r29, r1
    23ca:	0f b6       	in	r0, 0x3f	; 63
    23cc:	f8 94       	cli
    23ce:	de bf       	out	0x3e, r29	; 62
    23d0:	0f be       	out	0x3f, r0	; 63
    23d2:	cd bf       	out	0x3d, r28	; 61
    23d4:	ed 01       	movw	r28, r26
    23d6:	08 95       	ret

000023d8 <_exit>:
    23d8:	f8 94       	cli

000023da <__stop_program>:
    23da:	ff cf       	rjmp	.-2      	; 0x23da <__stop_program>
